
/Users/magbi/Desktop/jeu-nds/build/jeu-nds.elf:     file format elf32-littlearm


Disassembly of section .secure:

02000000 <__secure_area__>:
	...

Disassembly of section .crt0:

02000800 <__text_start>:
 2000800:	e3a00301 	mov	r0, #67108864	@ 0x4000000
 2000804:	e5800208 	str	r0, [r0, #520]	@ 0x208
 2000808:	e3a00013 	mov	r0, #19
 200080c:	e129f000 	msr	CPSR_fc, r0
 2000810:	e3a01403 	mov	r1, #50331648	@ 0x3000000
 2000814:	e2411a01 	sub	r1, r1, #4096	@ 0x1000
 2000818:	e1a0d001 	mov	sp, r1
 200081c:	e3a0001f 	mov	r0, #31
 2000820:	e129f000 	msr	CPSR_fc, r0
 2000824:	e2411c01 	sub	r1, r1, #256	@ 0x100
 2000828:	e1a0d001 	mov	sp, r1
 200082c:	e59f3240 	ldr	r3, [pc, #576]	@ 2000a74 <IPCSync+0x14>
 2000830:	e12fff33 	blx	r3
 2000834:	e3a00012 	mov	r0, #18
 2000838:	e129f000 	msr	CPSR_fc, r0
 200083c:	e59fd234 	ldr	sp, [pc, #564]	@ 2000a78 <IPCSync+0x18>
 2000840:	e3a00013 	mov	r0, #19
 2000844:	e129f000 	msr	CPSR_fc, r0
 2000848:	e59fd22c 	ldr	sp, [pc, #556]	@ 2000a7c <IPCSync+0x1c>
 200084c:	e3a0001f 	mov	r0, #31
 2000850:	e129f000 	msr	CPSR_fc, r0
 2000854:	e59fd224 	ldr	sp, [pc, #548]	@ 2000a80 <IPCSync+0x20>
 2000858:	e3a0c301 	mov	ip, #67108864	@ 0x4000000
 200085c:	e7dcb62c 	ldrb	fp, [ip, ip, lsr #12]
 2000860:	e20bb003 	and	fp, fp, #3
 2000864:	e3a09000 	mov	r9, #0
 2000868:	e58c9180 	str	r9, [ip, #384]	@ 0x180
 200086c:	e3a09009 	mov	r9, #9
 2000870:	eb00007a 	bl	2000a60 <IPCSync>
 2000874:	e3a09c0a 	mov	r9, #2560	@ 0xa00
 2000878:	e58c9180 	str	r9, [ip, #384]	@ 0x180
 200087c:	e3a0900b 	mov	r9, #11
 2000880:	eb000076 	bl	2000a60 <IPCSync>
 2000884:	e3a09b03 	mov	r9, #3072	@ 0xc00
 2000888:	e58c9180 	str	r9, [ip, #384]	@ 0x180
 200088c:	e3a0900d 	mov	r9, #13
 2000890:	eb000072 	bl	2000a60 <IPCSync>
 2000894:	e1a0940b 	lsl	r9, fp, #8
 2000898:	e58c9180 	str	r9, [ip, #384]	@ 0x180
 200089c:	e3a09000 	mov	r9, #0
 20008a0:	eb00006e 	bl	2000a60 <IPCSync>
 20008a4:	e58c9180 	str	r9, [ip, #384]	@ 0x180
 20008a8:	e59f11d4 	ldr	r1, [pc, #468]	@ 2000a84 <IPCSync+0x24>
 20008ac:	e59f21d4 	ldr	r2, [pc, #468]	@ 2000a88 <IPCSync+0x28>
 20008b0:	e59f41d4 	ldr	r4, [pc, #468]	@ 2000a8c <IPCSync+0x2c>
 20008b4:	eb00005f 	bl	2000a38 <CopyMemCheck>
 20008b8:	e59f11d0 	ldr	r1, [pc, #464]	@ 2000a90 <IPCSync+0x30>
 20008bc:	e59f21d0 	ldr	r2, [pc, #464]	@ 2000a94 <IPCSync+0x34>
 20008c0:	e59f41d0 	ldr	r4, [pc, #464]	@ 2000a98 <IPCSync+0x38>
 20008c4:	eb00005b 	bl	2000a38 <CopyMemCheck>
 20008c8:	e59f11cc 	ldr	r1, [pc, #460]	@ 2000a9c <IPCSync+0x3c>
 20008cc:	e59f21cc 	ldr	r2, [pc, #460]	@ 2000aa0 <IPCSync+0x40>
 20008d0:	e59f41cc 	ldr	r4, [pc, #460]	@ 2000aa4 <IPCSync+0x44>
 20008d4:	eb000057 	bl	2000a38 <CopyMemCheck>
 20008d8:	e35b0001 	cmp	fp, #1
 20008dc:	159fa1c4 	ldrne	sl, [pc, #452]	@ 2000aa8 <IPCSync+0x48>
 20008e0:	059fa1c4 	ldreq	sl, [pc, #452]	@ 2000aac <IPCSync+0x4c>
 20008e4:	eb00002a 	bl	2000994 <checkARGV>
 20008e8:	e59f01c0 	ldr	r0, [pc, #448]	@ 2000ab0 <IPCSync+0x50>
 20008ec:	e59f11c0 	ldr	r1, [pc, #448]	@ 2000ab4 <IPCSync+0x54>
 20008f0:	e0411000 	sub	r1, r1, r0
 20008f4:	eb000046 	bl	2000a14 <ClearMem>
 20008f8:	e59f01b8 	ldr	r0, [pc, #440]	@ 2000ab8 <IPCSync+0x58>
 20008fc:	e59f11b8 	ldr	r1, [pc, #440]	@ 2000abc <IPCSync+0x5c>
 2000900:	e0411000 	sub	r1, r1, r0
 2000904:	eb000042 	bl	2000a14 <ClearMem>
 2000908:	e35b0001 	cmp	fp, #1
 200090c:	1a00000b 	bne	2000940 <NotTWL>
 2000910:	e59f91a8 	ldr	r9, [pc, #424]	@ 2000ac0 <IPCSync+0x60>
 2000914:	e5c9b000 	strb	fp, [r9]
 2000918:	e59f11a4 	ldr	r1, [pc, #420]	@ 2000ac4 <IPCSync+0x64>
 200091c:	e5911000 	ldr	r1, [r1]
 2000920:	e59f21a0 	ldr	r2, [pc, #416]	@ 2000ac8 <IPCSync+0x68>
 2000924:	e1510002 	cmp	r1, r2
 2000928:	159f419c 	ldrne	r4, [pc, #412]	@ 2000acc <IPCSync+0x6c>
 200092c:	1b000041 	blne	2000a38 <CopyMemCheck>
 2000930:	e59f0198 	ldr	r0, [pc, #408]	@ 2000ad0 <IPCSync+0x70>
 2000934:	e59f1198 	ldr	r1, [pc, #408]	@ 2000ad4 <IPCSync+0x74>
 2000938:	e0411000 	sub	r1, r1, r0
 200093c:	eb000034 	bl	2000a14 <ClearMem>

02000940 <NotTWL>:
 2000940:	e59f0190 	ldr	r0, [pc, #400]	@ 2000ad8 <IPCSync+0x78>
 2000944:	e5902014 	ldr	r2, [r0, #20]
 2000948:	e3520000 	cmp	r2, #0
 200094c:	01a0200a 	moveq	r2, sl
 2000950:	e59f1184 	ldr	r1, [pc, #388]	@ 2000adc <IPCSync+0x7c>
 2000954:	e5812000 	str	r2, [r1]
 2000958:	e59f1180 	ldr	r1, [pc, #384]	@ 2000ae0 <IPCSync+0x80>
 200095c:	e2488903 	sub	r8, r8, #49152	@ 0xc000
 2000960:	e5818000 	str	r8, [r1]
 2000964:	e52d0004 	push	{r0}		@ (str r0, [sp, #-4]!)
 2000968:	e59f0174 	ldr	r0, [pc, #372]	@ 2000ae4 <IPCSync+0x84>
 200096c:	e59f3174 	ldr	r3, [pc, #372]	@ 2000ae8 <IPCSync+0x88>
 2000970:	e12fff33 	blx	r3
 2000974:	e59f3170 	ldr	r3, [pc, #368]	@ 2000aec <IPCSync+0x8c>
 2000978:	e12fff33 	blx	r3
 200097c:	e49d0004 	pop	{r0}		@ (ldr r0, [sp], #4)
 2000980:	e5901010 	ldr	r1, [r0, #16]
 2000984:	e590000c 	ldr	r0, [r0, #12]
 2000988:	e59f3160 	ldr	r3, [pc, #352]	@ 2000af0 <IPCSync+0x90>
 200098c:	e59fe160 	ldr	lr, [pc, #352]	@ 2000af4 <IPCSync+0x94>
 2000990:	e12fff13 	bx	r3

02000994 <checkARGV>:
 2000994:	e59f013c 	ldr	r0, [pc, #316]	@ 2000ad8 <IPCSync+0x78>
 2000998:	e3a01000 	mov	r1, #0
 200099c:	e580100c 	str	r1, [r0, #12]
 20009a0:	e5801010 	str	r1, [r0, #16]
 20009a4:	e5903000 	ldr	r3, [r0]
 20009a8:	e59f2148 	ldr	r2, [pc, #328]	@ 2000af8 <IPCSync+0x98>
 20009ac:	e1530002 	cmp	r3, r2
 20009b0:	15801014 	strne	r1, [r0, #20]
 20009b4:	112fff1e 	bxne	lr
 20009b8:	e5901004 	ldr	r1, [r0, #4]
 20009bc:	e5902008 	ldr	r2, [r0, #8]
 20009c0:	e1a0300a 	mov	r3, sl
 20009c4:	e5803004 	str	r3, [r0, #4]
 20009c8:	e3520000 	cmp	r2, #0
 20009cc:	10534001 	subsne	r4, r3, r1
 20009d0:	012fff1e 	bxeq	lr
 20009d4:	81520004 	cmphi	r2, r4
 20009d8:	8a000004 	bhi	20009f0 <.copybackward>

020009dc <.copyforward>:
 20009dc:	e4d14001 	ldrb	r4, [r1], #1
 20009e0:	e4c34001 	strb	r4, [r3], #1
 20009e4:	e2522001 	subs	r2, r2, #1
 20009e8:	1afffffb 	bne	20009dc <.copyforward>
 20009ec:	ea000003 	b	2000a00 <.copydone>

020009f0 <.copybackward>:
 20009f0:	e2522001 	subs	r2, r2, #1
 20009f4:	e7d14002 	ldrb	r4, [r1, r2]
 20009f8:	e7c34002 	strb	r4, [r3, r2]
 20009fc:	1afffffb 	bne	20009f0 <.copybackward>

02000a00 <.copydone>:
 2000a00:	e52de004 	push	{lr}		@ (str lr, [sp, #-4]!)
 2000a04:	e59f30f0 	ldr	r3, [pc, #240]	@ 2000afc <IPCSync+0x9c>
 2000a08:	e12fff33 	blx	r3
 2000a0c:	e49de004 	pop	{lr}		@ (ldr lr, [sp], #4)
 2000a10:	e12fff1e 	bx	lr

02000a14 <ClearMem>:
 2000a14:	e3a02003 	mov	r2, #3
 2000a18:	e0811002 	add	r1, r1, r2
 2000a1c:	e1d11002 	bics	r1, r1, r2
 2000a20:	012fff1e 	bxeq	lr
 2000a24:	e3a02000 	mov	r2, #0

02000a28 <ClrLoop>:
 2000a28:	e8a00004 	stmia	r0!, {r2}
 2000a2c:	e2511004 	subs	r1, r1, #4
 2000a30:	1afffffc 	bne	2000a28 <ClrLoop>
 2000a34:	e12fff1e 	bx	lr

02000a38 <CopyMemCheck>:
 2000a38:	e0443002 	sub	r3, r4, r2

02000a3c <CopyMem>:
 2000a3c:	e3a00003 	mov	r0, #3
 2000a40:	e0833000 	add	r3, r3, r0
 2000a44:	e1d33000 	bics	r3, r3, r0
 2000a48:	012fff1e 	bxeq	lr

02000a4c <CIDLoop>:
 2000a4c:	e8b10001 	ldm	r1!, {r0}
 2000a50:	e8a20001 	stmia	r2!, {r0}
 2000a54:	e2533004 	subs	r3, r3, #4
 2000a58:	1afffffb 	bne	2000a4c <CIDLoop>
 2000a5c:	e12fff1e 	bx	lr

02000a60 <IPCSync>:
 2000a60:	e59ca180 	ldr	sl, [ip, #384]	@ 0x180
 2000a64:	e20aa00f 	and	sl, sl, #15
 2000a68:	e15a0009 	cmp	sl, r9
 2000a6c:	1afffffb 	bne	2000a60 <IPCSync>
 2000a70:	e12fff1e 	bx	lr
 2000a74:	02003004 	andeq	r3, r0, #4
 2000a78:	02ff3e00 	rscseq	r3, pc, #0, 28
 2000a7c:	02ff3f00 	rscseq	r3, pc, #0, 30
 2000a80:	02ff3d00 	rscseq	r3, pc, #0, 26
 2000a84:	0201af08 	andeq	sl, r1, #8, 30
 2000a88:	01000100 	mrseq	r0, (UNDEF: 16)
 2000a8c:	01000294 			@ <UNDEFINED> instruction: 0x01000294
 2000a90:	0201b09c 	andeq	fp, r1, #156	@ 0x9c
 2000a94:	01000000 	mrseq	r0, (UNDEF: 0)
 2000a98:	01000000 	mrseq	r0, (UNDEF: 0)
 2000a9c:	0201af08 	andeq	sl, r1, #8, 30
 2000aa0:	02ff0000 	rscseq	r0, pc, #0
 2000aa4:	02ff0000 	rscseq	r0, pc, #0
 2000aa8:	0201bce4 	andeq	fp, r1, #228, 24	@ 0xe400
 2000aac:	0201bce4 	andeq	fp, r1, #228, 24	@ 0xe400
 2000ab0:	0201af08 	andeq	sl, r1, #8, 30
 2000ab4:	0201bce4 	andeq	fp, r1, #228, 24	@ 0xe400
 2000ab8:	02ff0000 	rscseq	r0, pc, #0
 2000abc:	02ff0000 	rscseq	r0, pc, #0
 2000ac0:	0201af84 	andeq	sl, r1, #132, 30	@ 0x210
 2000ac4:	02ffe1c8 	rscseq	lr, pc, #200, 2	@ 0x32
 2000ac8:	0201bce4 	andeq	fp, r1, #228, 24	@ 0xe400
 2000acc:	0201bce4 	andeq	fp, r1, #228, 24	@ 0xe400
 2000ad0:	0201bce4 	andeq	fp, r1, #228, 24	@ 0xe400
 2000ad4:	0201bce4 	andeq	fp, r1, #228, 24	@ 0xe400
 2000ad8:	02fffe70 	rscseq	pc, pc, #112, 28	@ 0x700
 2000adc:	0201bcd8 	andeq	fp, r1, #216, 24	@ 0xd800
 2000ae0:	0201bcdc 	andeq	fp, r1, #220, 24	@ 0xdc00
 2000ae4:	02000000 	andeq	r0, r0, #0
 2000ae8:	020022a1 	andeq	r2, r0, #268435466	@ 0x1000000a
 2000aec:	02004f7c 	andeq	r4, r0, #124, 30	@ 0x1f0
 2000af0:	02000b18 	andeq	r0, r0, #24, 22	@ 0x6000
 2000af4:	02002ee0 	andeq	r2, r0, #224, 28	@ 0xe00
 2000af8:	5f617267 	svcpl	0x00617267
 2000afc:	02012e68 	andeq	r2, r1, #104, 28	@ 0x680

Disassembly of section .init:

02000b00 <_init>:
 2000b00:	e1a0c00d 	mov	ip, sp
 2000b04:	e92ddff8 	push	{r3, r4, r5, r6, r7, r8, r9, sl, fp, ip, lr, pc}
 2000b08:	e24cb004 	sub	fp, ip, #4
 2000b0c:	e24bd028 	sub	sp, fp, #40	@ 0x28
 2000b10:	e89d6ff0 	ldm	sp, {r4, r5, r6, r7, r8, r9, sl, fp, sp, lr}
 2000b14:	e12fff1e 	bx	lr

Disassembly of section .text:

02000b18 <main>:
 2000b18:	e92d4010 	push	{r4, lr}
 2000b1c:	eb004a73 	bl	20134f0 <__consoleDemoInit_from_arm>
 2000b20:	e59f0008 	ldr	r0, [pc, #8]	@ 2000b30 <main+0x18>
 2000b24:	eb000f8b 	bl	2004958 <printf>
 2000b28:	eb000917 	bl	2002f8c <swiWaitForVBlank>
 2000b2c:	eafffffd 	b	2000b28 <main+0x10>
 2000b30:	02013590 	andeq	r3, r1, #144, 10	@ 0x24000000

02000b34 <__divsi3>:
 2000b34:	e3510000 	cmp	r1, #0
 2000b38:	0a000043 	beq	2000c4c <.divsi3_skip_div0_test+0x110>

02000b3c <.divsi3_skip_div0_test>:
 2000b3c:	e020c001 	eor	ip, r0, r1
 2000b40:	42611000 	rsbmi	r1, r1, #0
 2000b44:	e2512001 	subs	r2, r1, #1
 2000b48:	0a000027 	beq	2000bec <.divsi3_skip_div0_test+0xb0>
 2000b4c:	e1b03000 	movs	r3, r0
 2000b50:	42603000 	rsbmi	r3, r0, #0
 2000b54:	e1530001 	cmp	r3, r1
 2000b58:	9a000026 	bls	2000bf8 <.divsi3_skip_div0_test+0xbc>
 2000b5c:	e1110002 	tst	r1, r2
 2000b60:	0a000028 	beq	2000c08 <.divsi3_skip_div0_test+0xcc>
 2000b64:	e311020e 	tst	r1, #-536870912	@ 0xe0000000
 2000b68:	01a01181 	lsleq	r1, r1, #3
 2000b6c:	03a02008 	moveq	r2, #8
 2000b70:	13a02001 	movne	r2, #1
 2000b74:	e3510201 	cmp	r1, #268435456	@ 0x10000000
 2000b78:	31510003 	cmpcc	r1, r3
 2000b7c:	31a01201 	lslcc	r1, r1, #4
 2000b80:	31a02202 	lslcc	r2, r2, #4
 2000b84:	3afffffa 	bcc	2000b74 <.divsi3_skip_div0_test+0x38>
 2000b88:	e3510102 	cmp	r1, #-2147483648	@ 0x80000000
 2000b8c:	31510003 	cmpcc	r1, r3
 2000b90:	31a01081 	lslcc	r1, r1, #1
 2000b94:	31a02082 	lslcc	r2, r2, #1
 2000b98:	3afffffa 	bcc	2000b88 <.divsi3_skip_div0_test+0x4c>
 2000b9c:	e3a00000 	mov	r0, #0
 2000ba0:	e1530001 	cmp	r3, r1
 2000ba4:	20433001 	subcs	r3, r3, r1
 2000ba8:	21800002 	orrcs	r0, r0, r2
 2000bac:	e15300a1 	cmp	r3, r1, lsr #1
 2000bb0:	204330a1 	subcs	r3, r3, r1, lsr #1
 2000bb4:	218000a2 	orrcs	r0, r0, r2, lsr #1
 2000bb8:	e1530121 	cmp	r3, r1, lsr #2
 2000bbc:	20433121 	subcs	r3, r3, r1, lsr #2
 2000bc0:	21800122 	orrcs	r0, r0, r2, lsr #2
 2000bc4:	e15301a1 	cmp	r3, r1, lsr #3
 2000bc8:	204331a1 	subcs	r3, r3, r1, lsr #3
 2000bcc:	218001a2 	orrcs	r0, r0, r2, lsr #3
 2000bd0:	e3530000 	cmp	r3, #0
 2000bd4:	11b02222 	lsrsne	r2, r2, #4
 2000bd8:	11a01221 	lsrne	r1, r1, #4
 2000bdc:	1affffef 	bne	2000ba0 <.divsi3_skip_div0_test+0x64>
 2000be0:	e35c0000 	cmp	ip, #0
 2000be4:	42600000 	rsbmi	r0, r0, #0
 2000be8:	e12fff1e 	bx	lr
 2000bec:	e13c0000 	teq	ip, r0
 2000bf0:	42600000 	rsbmi	r0, r0, #0
 2000bf4:	e12fff1e 	bx	lr
 2000bf8:	33a00000 	movcc	r0, #0
 2000bfc:	01a00fcc 	asreq	r0, ip, #31
 2000c00:	03800001 	orreq	r0, r0, #1
 2000c04:	e12fff1e 	bx	lr
 2000c08:	e3510801 	cmp	r1, #65536	@ 0x10000
 2000c0c:	21a01821 	lsrcs	r1, r1, #16
 2000c10:	23a02010 	movcs	r2, #16
 2000c14:	33a02000 	movcc	r2, #0
 2000c18:	e3510c01 	cmp	r1, #256	@ 0x100
 2000c1c:	21a01421 	lsrcs	r1, r1, #8
 2000c20:	22822008 	addcs	r2, r2, #8
 2000c24:	e3510010 	cmp	r1, #16
 2000c28:	21a01221 	lsrcs	r1, r1, #4
 2000c2c:	22822004 	addcs	r2, r2, #4
 2000c30:	e3510004 	cmp	r1, #4
 2000c34:	82822003 	addhi	r2, r2, #3
 2000c38:	908220a1 	addls	r2, r2, r1, lsr #1
 2000c3c:	e35c0000 	cmp	ip, #0
 2000c40:	e1a00233 	lsr	r0, r3, r2
 2000c44:	42600000 	rsbmi	r0, r0, #0
 2000c48:	e12fff1e 	bx	lr
 2000c4c:	e3500000 	cmp	r0, #0
 2000c50:	c3e00102 	mvngt	r0, #-2147483648	@ 0x80000000
 2000c54:	b3a00102 	movlt	r0, #-2147483648	@ 0x80000000
 2000c58:	ea000007 	b	2000c7c <__aeabi_idiv0>

02000c5c <__aeabi_idivmod>:
 2000c5c:	e3510000 	cmp	r1, #0
 2000c60:	0afffff9 	beq	2000c4c <.divsi3_skip_div0_test+0x110>
 2000c64:	e92d4003 	push	{r0, r1, lr}
 2000c68:	ebffffb3 	bl	2000b3c <.divsi3_skip_div0_test>
 2000c6c:	e8bd4006 	pop	{r1, r2, lr}
 2000c70:	e0030092 	mul	r3, r2, r0
 2000c74:	e0411003 	sub	r1, r1, r3
 2000c78:	e12fff1e 	bx	lr

02000c7c <__aeabi_idiv0>:
 2000c7c:	e12fff1e 	bx	lr

02000c80 <__udivsi3>:
 2000c80:	e2512001 	subs	r2, r1, #1
 2000c84:	012fff1e 	bxeq	lr
 2000c88:	3a000036 	bcc	2000d68 <__udivsi3+0xe8>
 2000c8c:	e1500001 	cmp	r0, r1
 2000c90:	9a000022 	bls	2000d20 <__udivsi3+0xa0>
 2000c94:	e1110002 	tst	r1, r2
 2000c98:	0a000023 	beq	2000d2c <__udivsi3+0xac>
 2000c9c:	e311020e 	tst	r1, #-536870912	@ 0xe0000000
 2000ca0:	01a01181 	lsleq	r1, r1, #3
 2000ca4:	03a03008 	moveq	r3, #8
 2000ca8:	13a03001 	movne	r3, #1
 2000cac:	e3510201 	cmp	r1, #268435456	@ 0x10000000
 2000cb0:	31510000 	cmpcc	r1, r0
 2000cb4:	31a01201 	lslcc	r1, r1, #4
 2000cb8:	31a03203 	lslcc	r3, r3, #4
 2000cbc:	3afffffa 	bcc	2000cac <__udivsi3+0x2c>
 2000cc0:	e3510102 	cmp	r1, #-2147483648	@ 0x80000000
 2000cc4:	31510000 	cmpcc	r1, r0
 2000cc8:	31a01081 	lslcc	r1, r1, #1
 2000ccc:	31a03083 	lslcc	r3, r3, #1
 2000cd0:	3afffffa 	bcc	2000cc0 <__udivsi3+0x40>
 2000cd4:	e3a02000 	mov	r2, #0
 2000cd8:	e1500001 	cmp	r0, r1
 2000cdc:	20400001 	subcs	r0, r0, r1
 2000ce0:	21822003 	orrcs	r2, r2, r3
 2000ce4:	e15000a1 	cmp	r0, r1, lsr #1
 2000ce8:	204000a1 	subcs	r0, r0, r1, lsr #1
 2000cec:	218220a3 	orrcs	r2, r2, r3, lsr #1
 2000cf0:	e1500121 	cmp	r0, r1, lsr #2
 2000cf4:	20400121 	subcs	r0, r0, r1, lsr #2
 2000cf8:	21822123 	orrcs	r2, r2, r3, lsr #2
 2000cfc:	e15001a1 	cmp	r0, r1, lsr #3
 2000d00:	204001a1 	subcs	r0, r0, r1, lsr #3
 2000d04:	218221a3 	orrcs	r2, r2, r3, lsr #3
 2000d08:	e3500000 	cmp	r0, #0
 2000d0c:	11b03223 	lsrsne	r3, r3, #4
 2000d10:	11a01221 	lsrne	r1, r1, #4
 2000d14:	1affffef 	bne	2000cd8 <__udivsi3+0x58>
 2000d18:	e1a00002 	mov	r0, r2
 2000d1c:	e12fff1e 	bx	lr
 2000d20:	03a00001 	moveq	r0, #1
 2000d24:	13a00000 	movne	r0, #0
 2000d28:	e12fff1e 	bx	lr
 2000d2c:	e3510801 	cmp	r1, #65536	@ 0x10000
 2000d30:	21a01821 	lsrcs	r1, r1, #16
 2000d34:	23a02010 	movcs	r2, #16
 2000d38:	33a02000 	movcc	r2, #0
 2000d3c:	e3510c01 	cmp	r1, #256	@ 0x100
 2000d40:	21a01421 	lsrcs	r1, r1, #8
 2000d44:	22822008 	addcs	r2, r2, #8
 2000d48:	e3510010 	cmp	r1, #16
 2000d4c:	21a01221 	lsrcs	r1, r1, #4
 2000d50:	22822004 	addcs	r2, r2, #4
 2000d54:	e3510004 	cmp	r1, #4
 2000d58:	82822003 	addhi	r2, r2, #3
 2000d5c:	908220a1 	addls	r2, r2, r1, lsr #1
 2000d60:	e1a00230 	lsr	r0, r0, r2
 2000d64:	e12fff1e 	bx	lr
 2000d68:	e3500000 	cmp	r0, #0
 2000d6c:	13e00000 	mvnne	r0, #0
 2000d70:	eaffffc1 	b	2000c7c <__aeabi_idiv0>

02000d74 <__aeabi_uidivmod>:
 2000d74:	e3510000 	cmp	r1, #0
 2000d78:	0afffffa 	beq	2000d68 <__udivsi3+0xe8>
 2000d7c:	e92d4003 	push	{r0, r1, lr}
 2000d80:	ebffffbe 	bl	2000c80 <__udivsi3>
 2000d84:	e8bd4006 	pop	{r1, r2, lr}
 2000d88:	e0030092 	mul	r3, r2, r0
 2000d8c:	e0411003 	sub	r1, r1, r3
 2000d90:	e12fff1e 	bx	lr

02000d94 <__aeabi_drsub>:
 2000d94:	e2211102 	eor	r1, r1, #-2147483648	@ 0x80000000
 2000d98:	ea000000 	b	2000da0 <__adddf3>

02000d9c <__aeabi_dsub>:
 2000d9c:	e2233102 	eor	r3, r3, #-2147483648	@ 0x80000000

02000da0 <__adddf3>:
 2000da0:	e92d4030 	push	{r4, r5, lr}
 2000da4:	e1a04081 	lsl	r4, r1, #1
 2000da8:	e1a05083 	lsl	r5, r3, #1
 2000dac:	e1340005 	teq	r4, r5
 2000db0:	01300002 	teqeq	r0, r2
 2000db4:	1194c000 	orrsne	ip, r4, r0
 2000db8:	1195c002 	orrsne	ip, r5, r2
 2000dbc:	11f0cac4 	mvnsne	ip, r4, asr #21
 2000dc0:	11f0cac5 	mvnsne	ip, r5, asr #21
 2000dc4:	0a00008c 	beq	2000ffc <__adddf3+0x25c>
 2000dc8:	e1a04aa4 	lsr	r4, r4, #21
 2000dcc:	e0745aa5 	rsbs	r5, r4, r5, lsr #21
 2000dd0:	b2655000 	rsblt	r5, r5, #0
 2000dd4:	da000006 	ble	2000df4 <__adddf3+0x54>
 2000dd8:	e0844005 	add	r4, r4, r5
 2000ddc:	e0202002 	eor	r2, r0, r2
 2000de0:	e0213003 	eor	r3, r1, r3
 2000de4:	e0220000 	eor	r0, r2, r0
 2000de8:	e0231001 	eor	r1, r3, r1
 2000dec:	e0202002 	eor	r2, r0, r2
 2000df0:	e0213003 	eor	r3, r1, r3
 2000df4:	e3550036 	cmp	r5, #54	@ 0x36
 2000df8:	88bd4030 	pophi	{r4, r5, lr}
 2000dfc:	812fff1e 	bxhi	lr
 2000e00:	e3110102 	tst	r1, #-2147483648	@ 0x80000000
 2000e04:	e1a01601 	lsl	r1, r1, #12
 2000e08:	e3a0c601 	mov	ip, #1048576	@ 0x100000
 2000e0c:	e18c1621 	orr	r1, ip, r1, lsr #12
 2000e10:	0a000001 	beq	2000e1c <__adddf3+0x7c>
 2000e14:	e2700000 	rsbs	r0, r0, #0
 2000e18:	e2e11000 	rsc	r1, r1, #0
 2000e1c:	e3130102 	tst	r3, #-2147483648	@ 0x80000000
 2000e20:	e1a03603 	lsl	r3, r3, #12
 2000e24:	e18c3623 	orr	r3, ip, r3, lsr #12
 2000e28:	0a000001 	beq	2000e34 <__adddf3+0x94>
 2000e2c:	e2722000 	rsbs	r2, r2, #0
 2000e30:	e2e33000 	rsc	r3, r3, #0
 2000e34:	e1340005 	teq	r4, r5
 2000e38:	0a000069 	beq	2000fe4 <__adddf3+0x244>
 2000e3c:	e2444001 	sub	r4, r4, #1
 2000e40:	e275e020 	rsbs	lr, r5, #32
 2000e44:	ba000005 	blt	2000e60 <__adddf3+0xc0>
 2000e48:	e1a0ce12 	lsl	ip, r2, lr
 2000e4c:	e0900532 	adds	r0, r0, r2, lsr r5
 2000e50:	e2a11000 	adc	r1, r1, #0
 2000e54:	e0900e13 	adds	r0, r0, r3, lsl lr
 2000e58:	e0b11553 	adcs	r1, r1, r3, asr r5
 2000e5c:	ea000006 	b	2000e7c <__adddf3+0xdc>
 2000e60:	e2455020 	sub	r5, r5, #32
 2000e64:	e28ee020 	add	lr, lr, #32
 2000e68:	e3520001 	cmp	r2, #1
 2000e6c:	e1a0ce13 	lsl	ip, r3, lr
 2000e70:	238cc002 	orrcs	ip, ip, #2
 2000e74:	e0900553 	adds	r0, r0, r3, asr r5
 2000e78:	e0b11fc3 	adcs	r1, r1, r3, asr #31
 2000e7c:	e2015102 	and	r5, r1, #-2147483648	@ 0x80000000
 2000e80:	5a000002 	bpl	2000e90 <__adddf3+0xf0>
 2000e84:	e27cc000 	rsbs	ip, ip, #0
 2000e88:	e2f00000 	rscs	r0, r0, #0
 2000e8c:	e2e11000 	rsc	r1, r1, #0
 2000e90:	e3510601 	cmp	r1, #1048576	@ 0x100000
 2000e94:	3a00000f 	bcc	2000ed8 <__adddf3+0x138>
 2000e98:	e3510602 	cmp	r1, #2097152	@ 0x200000
 2000e9c:	3a000006 	bcc	2000ebc <__adddf3+0x11c>
 2000ea0:	e1b010a1 	lsrs	r1, r1, #1
 2000ea4:	e1b00060 	rrxs	r0, r0
 2000ea8:	e1a0c06c 	rrx	ip, ip
 2000eac:	e2844001 	add	r4, r4, #1
 2000eb0:	e1a02a84 	lsl	r2, r4, #21
 2000eb4:	e3720501 	cmn	r2, #4194304	@ 0x400000
 2000eb8:	2a00006b 	bcs	200106c <__adddf3+0x2cc>
 2000ebc:	e35c0102 	cmp	ip, #-2147483648	@ 0x80000000
 2000ec0:	01b0c0a0 	lsrseq	ip, r0, #1
 2000ec4:	e2b00000 	adcs	r0, r0, #0
 2000ec8:	e0a11a04 	adc	r1, r1, r4, lsl #20
 2000ecc:	e1811005 	orr	r1, r1, r5
 2000ed0:	e8bd4030 	pop	{r4, r5, lr}
 2000ed4:	e12fff1e 	bx	lr
 2000ed8:	e1b0c08c 	lsls	ip, ip, #1
 2000edc:	e0b00000 	adcs	r0, r0, r0
 2000ee0:	e0a11001 	adc	r1, r1, r1
 2000ee4:	e2544001 	subs	r4, r4, #1
 2000ee8:	23510601 	cmpcs	r1, #1048576	@ 0x100000
 2000eec:	2afffff2 	bcs	2000ebc <__adddf3+0x11c>
 2000ef0:	e3310000 	teq	r1, #0
 2000ef4:	13a03014 	movne	r3, #20
 2000ef8:	03a03034 	moveq	r3, #52	@ 0x34
 2000efc:	01a01000 	moveq	r1, r0
 2000f00:	03a00000 	moveq	r0, #0
 2000f04:	e1a02001 	mov	r2, r1
 2000f08:	e3520801 	cmp	r2, #65536	@ 0x10000
 2000f0c:	21a02822 	lsrcs	r2, r2, #16
 2000f10:	22433010 	subcs	r3, r3, #16
 2000f14:	e3520c01 	cmp	r2, #256	@ 0x100
 2000f18:	21a02422 	lsrcs	r2, r2, #8
 2000f1c:	22433008 	subcs	r3, r3, #8
 2000f20:	e3520010 	cmp	r2, #16
 2000f24:	21a02222 	lsrcs	r2, r2, #4
 2000f28:	22433004 	subcs	r3, r3, #4
 2000f2c:	e3520004 	cmp	r2, #4
 2000f30:	22433002 	subcs	r3, r3, #2
 2000f34:	304330a2 	subcc	r3, r3, r2, lsr #1
 2000f38:	e04331a2 	sub	r3, r3, r2, lsr #3
 2000f3c:	e2532020 	subs	r2, r3, #32
 2000f40:	aa000007 	bge	2000f64 <__adddf3+0x1c4>
 2000f44:	e292200c 	adds	r2, r2, #12
 2000f48:	da000004 	ble	2000f60 <__adddf3+0x1c0>
 2000f4c:	e282c014 	add	ip, r2, #20
 2000f50:	e262200c 	rsb	r2, r2, #12
 2000f54:	e1a00c11 	lsl	r0, r1, ip
 2000f58:	e1a01231 	lsr	r1, r1, r2
 2000f5c:	ea000004 	b	2000f74 <__adddf3+0x1d4>
 2000f60:	e2822014 	add	r2, r2, #20
 2000f64:	d262c020 	rsble	ip, r2, #32
 2000f68:	e1a01211 	lsl	r1, r1, r2
 2000f6c:	d1811c30 	orrle	r1, r1, r0, lsr ip
 2000f70:	d1a00210 	lslle	r0, r0, r2
 2000f74:	e0544003 	subs	r4, r4, r3
 2000f78:	a0811a04 	addge	r1, r1, r4, lsl #20
 2000f7c:	a1811005 	orrge	r1, r1, r5
 2000f80:	a8bd4030 	popge	{r4, r5, lr}
 2000f84:	a12fff1e 	bxge	lr
 2000f88:	e1e04004 	mvn	r4, r4
 2000f8c:	e254401f 	subs	r4, r4, #31
 2000f90:	aa00000f 	bge	2000fd4 <__adddf3+0x234>
 2000f94:	e294400c 	adds	r4, r4, #12
 2000f98:	ca000006 	bgt	2000fb8 <__adddf3+0x218>
 2000f9c:	e2844014 	add	r4, r4, #20
 2000fa0:	e2642020 	rsb	r2, r4, #32
 2000fa4:	e1a00430 	lsr	r0, r0, r4
 2000fa8:	e1800211 	orr	r0, r0, r1, lsl r2
 2000fac:	e1851431 	orr	r1, r5, r1, lsr r4
 2000fb0:	e8bd4030 	pop	{r4, r5, lr}
 2000fb4:	e12fff1e 	bx	lr
 2000fb8:	e264400c 	rsb	r4, r4, #12
 2000fbc:	e2642020 	rsb	r2, r4, #32
 2000fc0:	e1a00230 	lsr	r0, r0, r2
 2000fc4:	e1800411 	orr	r0, r0, r1, lsl r4
 2000fc8:	e1a01005 	mov	r1, r5
 2000fcc:	e8bd4030 	pop	{r4, r5, lr}
 2000fd0:	e12fff1e 	bx	lr
 2000fd4:	e1a00431 	lsr	r0, r1, r4
 2000fd8:	e1a01005 	mov	r1, r5
 2000fdc:	e8bd4030 	pop	{r4, r5, lr}
 2000fe0:	e12fff1e 	bx	lr
 2000fe4:	e3340000 	teq	r4, #0
 2000fe8:	e2233601 	eor	r3, r3, #1048576	@ 0x100000
 2000fec:	02211601 	eoreq	r1, r1, #1048576	@ 0x100000
 2000ff0:	02844001 	addeq	r4, r4, #1
 2000ff4:	12455001 	subne	r5, r5, #1
 2000ff8:	eaffff8f 	b	2000e3c <__adddf3+0x9c>
 2000ffc:	e1f0cac4 	mvns	ip, r4, asr #21
 2001000:	11f0cac5 	mvnsne	ip, r5, asr #21
 2001004:	0a00001d 	beq	2001080 <__adddf3+0x2e0>
 2001008:	e1340005 	teq	r4, r5
 200100c:	01300002 	teqeq	r0, r2
 2001010:	0a000004 	beq	2001028 <__adddf3+0x288>
 2001014:	e194c000 	orrs	ip, r4, r0
 2001018:	01a01003 	moveq	r1, r3
 200101c:	01a00002 	moveq	r0, r2
 2001020:	e8bd4030 	pop	{r4, r5, lr}
 2001024:	e12fff1e 	bx	lr
 2001028:	e1310003 	teq	r1, r3
 200102c:	13a01000 	movne	r1, #0
 2001030:	13a00000 	movne	r0, #0
 2001034:	18bd4030 	popne	{r4, r5, lr}
 2001038:	112fff1e 	bxne	lr
 200103c:	e1b0caa4 	lsrs	ip, r4, #21
 2001040:	1a000004 	bne	2001058 <__adddf3+0x2b8>
 2001044:	e1b00080 	lsls	r0, r0, #1
 2001048:	e0b11001 	adcs	r1, r1, r1
 200104c:	23811102 	orrcs	r1, r1, #-2147483648	@ 0x80000000
 2001050:	e8bd4030 	pop	{r4, r5, lr}
 2001054:	e12fff1e 	bx	lr
 2001058:	e2944501 	adds	r4, r4, #4194304	@ 0x400000
 200105c:	32811601 	addcc	r1, r1, #1048576	@ 0x100000
 2001060:	38bd4030 	popcc	{r4, r5, lr}
 2001064:	312fff1e 	bxcc	lr
 2001068:	e2015102 	and	r5, r1, #-2147483648	@ 0x80000000
 200106c:	e385147f 	orr	r1, r5, #2130706432	@ 0x7f000000
 2001070:	e381160f 	orr	r1, r1, #15728640	@ 0xf00000
 2001074:	e3a00000 	mov	r0, #0
 2001078:	e8bd4030 	pop	{r4, r5, lr}
 200107c:	e12fff1e 	bx	lr
 2001080:	e1f0cac4 	mvns	ip, r4, asr #21
 2001084:	11a01003 	movne	r1, r3
 2001088:	11a00002 	movne	r0, r2
 200108c:	01f0cac5 	mvnseq	ip, r5, asr #21
 2001090:	11a03001 	movne	r3, r1
 2001094:	11a02000 	movne	r2, r0
 2001098:	e1904601 	orrs	r4, r0, r1, lsl #12
 200109c:	01925603 	orrseq	r5, r2, r3, lsl #12
 20010a0:	01310003 	teqeq	r1, r3
 20010a4:	13811702 	orrne	r1, r1, #524288	@ 0x80000
 20010a8:	e8bd4030 	pop	{r4, r5, lr}
 20010ac:	e12fff1e 	bx	lr

020010b0 <__aeabi_ui2d>:
 20010b0:	e3300000 	teq	r0, #0
 20010b4:	03a01000 	moveq	r1, #0
 20010b8:	012fff1e 	bxeq	lr
 20010bc:	e92d4030 	push	{r4, r5, lr}
 20010c0:	e3a04b01 	mov	r4, #1024	@ 0x400
 20010c4:	e2844032 	add	r4, r4, #50	@ 0x32
 20010c8:	e3a05000 	mov	r5, #0
 20010cc:	e3a01000 	mov	r1, #0
 20010d0:	eaffff86 	b	2000ef0 <__adddf3+0x150>

020010d4 <__aeabi_i2d>:
 20010d4:	e3300000 	teq	r0, #0
 20010d8:	03a01000 	moveq	r1, #0
 20010dc:	012fff1e 	bxeq	lr
 20010e0:	e92d4030 	push	{r4, r5, lr}
 20010e4:	e3a04b01 	mov	r4, #1024	@ 0x400
 20010e8:	e2844032 	add	r4, r4, #50	@ 0x32
 20010ec:	e2105102 	ands	r5, r0, #-2147483648	@ 0x80000000
 20010f0:	42600000 	rsbmi	r0, r0, #0
 20010f4:	e3a01000 	mov	r1, #0
 20010f8:	eaffff7c 	b	2000ef0 <__adddf3+0x150>

020010fc <__aeabi_f2d>:
 20010fc:	e1b02080 	lsls	r2, r0, #1
 2001100:	e1a011c2 	asr	r1, r2, #3
 2001104:	e1a01061 	rrx	r1, r1
 2001108:	e1a00e02 	lsl	r0, r2, #28
 200110c:	121234ff 	andsne	r3, r2, #-16777216	@ 0xff000000
 2001110:	133304ff 	teqne	r3, #-16777216	@ 0xff000000
 2001114:	1221130e 	eorne	r1, r1, #939524096	@ 0x38000000
 2001118:	112fff1e 	bxne	lr
 200111c:	e3d224ff 	bics	r2, r2, #-16777216	@ 0xff000000
 2001120:	012fff1e 	bxeq	lr
 2001124:	e33304ff 	teq	r3, #-16777216	@ 0xff000000
 2001128:	03811702 	orreq	r1, r1, #524288	@ 0x80000
 200112c:	012fff1e 	bxeq	lr
 2001130:	e92d4030 	push	{r4, r5, lr}
 2001134:	e3a04d0e 	mov	r4, #896	@ 0x380
 2001138:	e2015102 	and	r5, r1, #-2147483648	@ 0x80000000
 200113c:	e3c11102 	bic	r1, r1, #-2147483648	@ 0x80000000
 2001140:	eaffff6a 	b	2000ef0 <__adddf3+0x150>

02001144 <__aeabi_ul2d>:
 2001144:	e1902001 	orrs	r2, r0, r1
 2001148:	012fff1e 	bxeq	lr
 200114c:	e92d4030 	push	{r4, r5, lr}
 2001150:	e3a05000 	mov	r5, #0
 2001154:	ea000006 	b	2001174 <__aeabi_l2d+0x1c>

02001158 <__aeabi_l2d>:
 2001158:	e1902001 	orrs	r2, r0, r1
 200115c:	012fff1e 	bxeq	lr
 2001160:	e92d4030 	push	{r4, r5, lr}
 2001164:	e2115102 	ands	r5, r1, #-2147483648	@ 0x80000000
 2001168:	5a000001 	bpl	2001174 <__aeabi_l2d+0x1c>
 200116c:	e2700000 	rsbs	r0, r0, #0
 2001170:	e2e11000 	rsc	r1, r1, #0
 2001174:	e3a04b01 	mov	r4, #1024	@ 0x400
 2001178:	e2844032 	add	r4, r4, #50	@ 0x32
 200117c:	e1b0cb21 	lsrs	ip, r1, #22
 2001180:	0affff42 	beq	2000e90 <__adddf3+0xf0>
 2001184:	e3a02003 	mov	r2, #3
 2001188:	e1b0c1ac 	lsrs	ip, ip, #3
 200118c:	12822003 	addne	r2, r2, #3
 2001190:	e1b0c1ac 	lsrs	ip, ip, #3
 2001194:	12822003 	addne	r2, r2, #3
 2001198:	e08221ac 	add	r2, r2, ip, lsr #3
 200119c:	e2623020 	rsb	r3, r2, #32
 20011a0:	e1a0c310 	lsl	ip, r0, r3
 20011a4:	e1a00230 	lsr	r0, r0, r2
 20011a8:	e1800311 	orr	r0, r0, r1, lsl r3
 20011ac:	e1a01231 	lsr	r1, r1, r2
 20011b0:	e0844002 	add	r4, r4, r2
 20011b4:	eaffff35 	b	2000e90 <__adddf3+0xf0>

020011b8 <__aeabi_dmul>:
 20011b8:	e92d4070 	push	{r4, r5, r6, lr}
 20011bc:	e3a0c0ff 	mov	ip, #255	@ 0xff
 20011c0:	e38ccc07 	orr	ip, ip, #1792	@ 0x700
 20011c4:	e01c4a21 	ands	r4, ip, r1, lsr #20
 20011c8:	101c5a23 	andsne	r5, ip, r3, lsr #20
 20011cc:	1134000c 	teqne	r4, ip
 20011d0:	1135000c 	teqne	r5, ip
 20011d4:	0b000075 	bleq	20013b0 <__aeabi_dmul+0x1f8>
 20011d8:	e0844005 	add	r4, r4, r5
 20011dc:	e0216003 	eor	r6, r1, r3
 20011e0:	e1c11a8c 	bic	r1, r1, ip, lsl #21
 20011e4:	e1c33a8c 	bic	r3, r3, ip, lsl #21
 20011e8:	e1905601 	orrs	r5, r0, r1, lsl #12
 20011ec:	11925603 	orrsne	r5, r2, r3, lsl #12
 20011f0:	e3811601 	orr	r1, r1, #1048576	@ 0x100000
 20011f4:	e3833601 	orr	r3, r3, #1048576	@ 0x100000
 20011f8:	0a00001d 	beq	2001274 <__aeabi_dmul+0xbc>
 20011fc:	e08ec290 	umull	ip, lr, r0, r2
 2001200:	e3a05000 	mov	r5, #0
 2001204:	e0a5e291 	umlal	lr, r5, r1, r2
 2001208:	e2062102 	and	r2, r6, #-2147483648	@ 0x80000000
 200120c:	e0a5e390 	umlal	lr, r5, r0, r3
 2001210:	e3a06000 	mov	r6, #0
 2001214:	e0a65391 	umlal	r5, r6, r1, r3
 2001218:	e33c0000 	teq	ip, #0
 200121c:	138ee001 	orrne	lr, lr, #1
 2001220:	e24440ff 	sub	r4, r4, #255	@ 0xff
 2001224:	e3560c02 	cmp	r6, #512	@ 0x200
 2001228:	e2c44c03 	sbc	r4, r4, #768	@ 0x300
 200122c:	2a000002 	bcs	200123c <__aeabi_dmul+0x84>
 2001230:	e1b0e08e 	lsls	lr, lr, #1
 2001234:	e0b55005 	adcs	r5, r5, r5
 2001238:	e0a66006 	adc	r6, r6, r6
 200123c:	e1821586 	orr	r1, r2, r6, lsl #11
 2001240:	e1811aa5 	orr	r1, r1, r5, lsr #21
 2001244:	e1a00585 	lsl	r0, r5, #11
 2001248:	e1800aae 	orr	r0, r0, lr, lsr #21
 200124c:	e1a0e58e 	lsl	lr, lr, #11
 2001250:	e254c0fd 	subs	ip, r4, #253	@ 0xfd
 2001254:	835c0c07 	cmphi	ip, #1792	@ 0x700
 2001258:	8a000011 	bhi	20012a4 <__aeabi_dmul+0xec>
 200125c:	e35e0102 	cmp	lr, #-2147483648	@ 0x80000000
 2001260:	01b0e0a0 	lsrseq	lr, r0, #1
 2001264:	e2b00000 	adcs	r0, r0, #0
 2001268:	e0a11a04 	adc	r1, r1, r4, lsl #20
 200126c:	e8bd4070 	pop	{r4, r5, r6, lr}
 2001270:	e12fff1e 	bx	lr
 2001274:	e2066102 	and	r6, r6, #-2147483648	@ 0x80000000
 2001278:	e1861001 	orr	r1, r6, r1
 200127c:	e1800002 	orr	r0, r0, r2
 2001280:	e0211003 	eor	r1, r1, r3
 2001284:	e05440ac 	subs	r4, r4, ip, lsr #1
 2001288:	c074500c 	rsbsgt	r5, r4, ip
 200128c:	c1811a04 	orrgt	r1, r1, r4, lsl #20
 2001290:	c8bd4070 	popgt	{r4, r5, r6, lr}
 2001294:	c12fff1e 	bxgt	lr
 2001298:	e3811601 	orr	r1, r1, #1048576	@ 0x100000
 200129c:	e3a0e000 	mov	lr, #0
 20012a0:	e2544001 	subs	r4, r4, #1
 20012a4:	ca00005d 	bgt	2001420 <__aeabi_dmul+0x268>
 20012a8:	e3740036 	cmn	r4, #54	@ 0x36
 20012ac:	d3a00000 	movle	r0, #0
 20012b0:	d2011102 	andle	r1, r1, #-2147483648	@ 0x80000000
 20012b4:	d8bd4070 	pople	{r4, r5, r6, lr}
 20012b8:	d12fff1e 	bxle	lr
 20012bc:	e2644000 	rsb	r4, r4, #0
 20012c0:	e2544020 	subs	r4, r4, #32
 20012c4:	aa00001a 	bge	2001334 <__aeabi_dmul+0x17c>
 20012c8:	e294400c 	adds	r4, r4, #12
 20012cc:	ca00000c 	bgt	2001304 <__aeabi_dmul+0x14c>
 20012d0:	e2844014 	add	r4, r4, #20
 20012d4:	e2645020 	rsb	r5, r4, #32
 20012d8:	e1a03510 	lsl	r3, r0, r5
 20012dc:	e1a00430 	lsr	r0, r0, r4
 20012e0:	e1800511 	orr	r0, r0, r1, lsl r5
 20012e4:	e2012102 	and	r2, r1, #-2147483648	@ 0x80000000
 20012e8:	e3c11102 	bic	r1, r1, #-2147483648	@ 0x80000000
 20012ec:	e0900fa3 	adds	r0, r0, r3, lsr #31
 20012f0:	e0a21431 	adc	r1, r2, r1, lsr r4
 20012f4:	e19ee083 	orrs	lr, lr, r3, lsl #1
 20012f8:	01c00fa3 	biceq	r0, r0, r3, lsr #31
 20012fc:	e8bd4070 	pop	{r4, r5, r6, lr}
 2001300:	e12fff1e 	bx	lr
 2001304:	e264400c 	rsb	r4, r4, #12
 2001308:	e2645020 	rsb	r5, r4, #32
 200130c:	e1a03410 	lsl	r3, r0, r4
 2001310:	e1a00530 	lsr	r0, r0, r5
 2001314:	e1800411 	orr	r0, r0, r1, lsl r4
 2001318:	e2011102 	and	r1, r1, #-2147483648	@ 0x80000000
 200131c:	e0900fa3 	adds	r0, r0, r3, lsr #31
 2001320:	e2a11000 	adc	r1, r1, #0
 2001324:	e19ee083 	orrs	lr, lr, r3, lsl #1
 2001328:	01c00fa3 	biceq	r0, r0, r3, lsr #31
 200132c:	e8bd4070 	pop	{r4, r5, r6, lr}
 2001330:	e12fff1e 	bx	lr
 2001334:	e2645020 	rsb	r5, r4, #32
 2001338:	e18ee510 	orr	lr, lr, r0, lsl r5
 200133c:	e1a03430 	lsr	r3, r0, r4
 2001340:	e1833511 	orr	r3, r3, r1, lsl r5
 2001344:	e1a00431 	lsr	r0, r1, r4
 2001348:	e2011102 	and	r1, r1, #-2147483648	@ 0x80000000
 200134c:	e1c00431 	bic	r0, r0, r1, lsr r4
 2001350:	e0800fa3 	add	r0, r0, r3, lsr #31
 2001354:	e19ee083 	orrs	lr, lr, r3, lsl #1
 2001358:	01c00fa3 	biceq	r0, r0, r3, lsr #31
 200135c:	e8bd4070 	pop	{r4, r5, r6, lr}
 2001360:	e12fff1e 	bx	lr
 2001364:	e3340000 	teq	r4, #0
 2001368:	1a000008 	bne	2001390 <__aeabi_dmul+0x1d8>
 200136c:	e2016102 	and	r6, r1, #-2147483648	@ 0x80000000
 2001370:	e1b00080 	lsls	r0, r0, #1
 2001374:	e0a11001 	adc	r1, r1, r1
 2001378:	e3110601 	tst	r1, #1048576	@ 0x100000
 200137c:	02444001 	subeq	r4, r4, #1
 2001380:	0afffffa 	beq	2001370 <__aeabi_dmul+0x1b8>
 2001384:	e1811006 	orr	r1, r1, r6
 2001388:	e3350000 	teq	r5, #0
 200138c:	112fff1e 	bxne	lr
 2001390:	e2036102 	and	r6, r3, #-2147483648	@ 0x80000000
 2001394:	e1b02082 	lsls	r2, r2, #1
 2001398:	e0a33003 	adc	r3, r3, r3
 200139c:	e3130601 	tst	r3, #1048576	@ 0x100000
 20013a0:	02455001 	subeq	r5, r5, #1
 20013a4:	0afffffa 	beq	2001394 <__aeabi_dmul+0x1dc>
 20013a8:	e1833006 	orr	r3, r3, r6
 20013ac:	e12fff1e 	bx	lr
 20013b0:	e134000c 	teq	r4, ip
 20013b4:	e00c5a23 	and	r5, ip, r3, lsr #20
 20013b8:	1135000c 	teqne	r5, ip
 20013bc:	0a000007 	beq	20013e0 <__aeabi_dmul+0x228>
 20013c0:	e1906081 	orrs	r6, r0, r1, lsl #1
 20013c4:	11926083 	orrsne	r6, r2, r3, lsl #1
 20013c8:	1affffe5 	bne	2001364 <__aeabi_dmul+0x1ac>
 20013cc:	e0211003 	eor	r1, r1, r3
 20013d0:	e2011102 	and	r1, r1, #-2147483648	@ 0x80000000
 20013d4:	e3a00000 	mov	r0, #0
 20013d8:	e8bd4070 	pop	{r4, r5, r6, lr}
 20013dc:	e12fff1e 	bx	lr
 20013e0:	e1906081 	orrs	r6, r0, r1, lsl #1
 20013e4:	01a00002 	moveq	r0, r2
 20013e8:	01a01003 	moveq	r1, r3
 20013ec:	11926083 	orrsne	r6, r2, r3, lsl #1
 20013f0:	0a000010 	beq	2001438 <__aeabi_dmul+0x280>
 20013f4:	e134000c 	teq	r4, ip
 20013f8:	1a000001 	bne	2001404 <__aeabi_dmul+0x24c>
 20013fc:	e1906601 	orrs	r6, r0, r1, lsl #12
 2001400:	1a00000c 	bne	2001438 <__aeabi_dmul+0x280>
 2001404:	e135000c 	teq	r5, ip
 2001408:	1a000003 	bne	200141c <__aeabi_dmul+0x264>
 200140c:	e1926603 	orrs	r6, r2, r3, lsl #12
 2001410:	11a00002 	movne	r0, r2
 2001414:	11a01003 	movne	r1, r3
 2001418:	1a000006 	bne	2001438 <__aeabi_dmul+0x280>
 200141c:	e0211003 	eor	r1, r1, r3
 2001420:	e2011102 	and	r1, r1, #-2147483648	@ 0x80000000
 2001424:	e381147f 	orr	r1, r1, #2130706432	@ 0x7f000000
 2001428:	e381160f 	orr	r1, r1, #15728640	@ 0xf00000
 200142c:	e3a00000 	mov	r0, #0
 2001430:	e8bd4070 	pop	{r4, r5, r6, lr}
 2001434:	e12fff1e 	bx	lr
 2001438:	e381147f 	orr	r1, r1, #2130706432	@ 0x7f000000
 200143c:	e381173e 	orr	r1, r1, #16252928	@ 0xf80000
 2001440:	e8bd4070 	pop	{r4, r5, r6, lr}
 2001444:	e12fff1e 	bx	lr

02001448 <__aeabi_ddiv>:
 2001448:	e92d4070 	push	{r4, r5, r6, lr}
 200144c:	e3a0c0ff 	mov	ip, #255	@ 0xff
 2001450:	e38ccc07 	orr	ip, ip, #1792	@ 0x700
 2001454:	e01c4a21 	ands	r4, ip, r1, lsr #20
 2001458:	101c5a23 	andsne	r5, ip, r3, lsr #20
 200145c:	1134000c 	teqne	r4, ip
 2001460:	1135000c 	teqne	r5, ip
 2001464:	0b00005e 	bleq	20015e4 <__aeabi_ddiv+0x19c>
 2001468:	e0444005 	sub	r4, r4, r5
 200146c:	e021e003 	eor	lr, r1, r3
 2001470:	e1925603 	orrs	r5, r2, r3, lsl #12
 2001474:	e1a01601 	lsl	r1, r1, #12
 2001478:	0a00004c 	beq	20015b0 <__aeabi_ddiv+0x168>
 200147c:	e1a03603 	lsl	r3, r3, #12
 2001480:	e3a05201 	mov	r5, #268435456	@ 0x10000000
 2001484:	e1853223 	orr	r3, r5, r3, lsr #4
 2001488:	e1833c22 	orr	r3, r3, r2, lsr #24
 200148c:	e1a02402 	lsl	r2, r2, #8
 2001490:	e1855221 	orr	r5, r5, r1, lsr #4
 2001494:	e1855c20 	orr	r5, r5, r0, lsr #24
 2001498:	e1a06400 	lsl	r6, r0, #8
 200149c:	e20e1102 	and	r1, lr, #-2147483648	@ 0x80000000
 20014a0:	e1550003 	cmp	r5, r3
 20014a4:	01560002 	cmpeq	r6, r2
 20014a8:	e2a440fd 	adc	r4, r4, #253	@ 0xfd
 20014ac:	e2844c03 	add	r4, r4, #768	@ 0x300
 20014b0:	2a000001 	bcs	20014bc <__aeabi_ddiv+0x74>
 20014b4:	e1b030a3 	lsrs	r3, r3, #1
 20014b8:	e1a02062 	rrx	r2, r2
 20014bc:	e0566002 	subs	r6, r6, r2
 20014c0:	e0c55003 	sbc	r5, r5, r3
 20014c4:	e1b030a3 	lsrs	r3, r3, #1
 20014c8:	e1a02062 	rrx	r2, r2
 20014cc:	e3a00601 	mov	r0, #1048576	@ 0x100000
 20014d0:	e3a0c702 	mov	ip, #524288	@ 0x80000
 20014d4:	e056e002 	subs	lr, r6, r2
 20014d8:	e0d5e003 	sbcs	lr, r5, r3
 20014dc:	20466002 	subcs	r6, r6, r2
 20014e0:	21a0500e 	movcs	r5, lr
 20014e4:	2180000c 	orrcs	r0, r0, ip
 20014e8:	e1b030a3 	lsrs	r3, r3, #1
 20014ec:	e1a02062 	rrx	r2, r2
 20014f0:	e056e002 	subs	lr, r6, r2
 20014f4:	e0d5e003 	sbcs	lr, r5, r3
 20014f8:	20466002 	subcs	r6, r6, r2
 20014fc:	21a0500e 	movcs	r5, lr
 2001500:	218000ac 	orrcs	r0, r0, ip, lsr #1
 2001504:	e1b030a3 	lsrs	r3, r3, #1
 2001508:	e1a02062 	rrx	r2, r2
 200150c:	e056e002 	subs	lr, r6, r2
 2001510:	e0d5e003 	sbcs	lr, r5, r3
 2001514:	20466002 	subcs	r6, r6, r2
 2001518:	21a0500e 	movcs	r5, lr
 200151c:	2180012c 	orrcs	r0, r0, ip, lsr #2
 2001520:	e1b030a3 	lsrs	r3, r3, #1
 2001524:	e1a02062 	rrx	r2, r2
 2001528:	e056e002 	subs	lr, r6, r2
 200152c:	e0d5e003 	sbcs	lr, r5, r3
 2001530:	20466002 	subcs	r6, r6, r2
 2001534:	21a0500e 	movcs	r5, lr
 2001538:	218001ac 	orrcs	r0, r0, ip, lsr #3
 200153c:	e195e006 	orrs	lr, r5, r6
 2001540:	0a00000d 	beq	200157c <__aeabi_ddiv+0x134>
 2001544:	e1a05205 	lsl	r5, r5, #4
 2001548:	e1855e26 	orr	r5, r5, r6, lsr #28
 200154c:	e1a06206 	lsl	r6, r6, #4
 2001550:	e1a03183 	lsl	r3, r3, #3
 2001554:	e1833ea2 	orr	r3, r3, r2, lsr #29
 2001558:	e1a02182 	lsl	r2, r2, #3
 200155c:	e1b0c22c 	lsrs	ip, ip, #4
 2001560:	1affffdb 	bne	20014d4 <__aeabi_ddiv+0x8c>
 2001564:	e3110601 	tst	r1, #1048576	@ 0x100000
 2001568:	1a000006 	bne	2001588 <__aeabi_ddiv+0x140>
 200156c:	e1811000 	orr	r1, r1, r0
 2001570:	e3a00000 	mov	r0, #0
 2001574:	e3a0c102 	mov	ip, #-2147483648	@ 0x80000000
 2001578:	eaffffd5 	b	20014d4 <__aeabi_ddiv+0x8c>
 200157c:	e3110601 	tst	r1, #1048576	@ 0x100000
 2001580:	01811000 	orreq	r1, r1, r0
 2001584:	03a00000 	moveq	r0, #0
 2001588:	e254c0fd 	subs	ip, r4, #253	@ 0xfd
 200158c:	835c0c07 	cmphi	ip, #1792	@ 0x700
 2001590:	8affff43 	bhi	20012a4 <__aeabi_dmul+0xec>
 2001594:	e055c003 	subs	ip, r5, r3
 2001598:	0056c002 	subseq	ip, r6, r2
 200159c:	01b0c0a0 	lsrseq	ip, r0, #1
 20015a0:	e2b00000 	adcs	r0, r0, #0
 20015a4:	e0a11a04 	adc	r1, r1, r4, lsl #20
 20015a8:	e8bd4070 	pop	{r4, r5, r6, lr}
 20015ac:	e12fff1e 	bx	lr
 20015b0:	e20ee102 	and	lr, lr, #-2147483648	@ 0x80000000
 20015b4:	e18e1621 	orr	r1, lr, r1, lsr #12
 20015b8:	e09440ac 	adds	r4, r4, ip, lsr #1
 20015bc:	c074500c 	rsbsgt	r5, r4, ip
 20015c0:	c1811a04 	orrgt	r1, r1, r4, lsl #20
 20015c4:	c8bd4070 	popgt	{r4, r5, r6, lr}
 20015c8:	c12fff1e 	bxgt	lr
 20015cc:	e3811601 	orr	r1, r1, #1048576	@ 0x100000
 20015d0:	e3a0e000 	mov	lr, #0
 20015d4:	e2544001 	subs	r4, r4, #1
 20015d8:	eaffff31 	b	20012a4 <__aeabi_dmul+0xec>
 20015dc:	e185e006 	orr	lr, r5, r6
 20015e0:	eaffff2f 	b	20012a4 <__aeabi_dmul+0xec>
 20015e4:	e00c5a23 	and	r5, ip, r3, lsr #20
 20015e8:	e134000c 	teq	r4, ip
 20015ec:	0135000c 	teqeq	r5, ip
 20015f0:	0affff90 	beq	2001438 <__aeabi_dmul+0x280>
 20015f4:	e134000c 	teq	r4, ip
 20015f8:	1a000006 	bne	2001618 <__aeabi_ddiv+0x1d0>
 20015fc:	e1904601 	orrs	r4, r0, r1, lsl #12
 2001600:	1affff8c 	bne	2001438 <__aeabi_dmul+0x280>
 2001604:	e135000c 	teq	r5, ip
 2001608:	1affff83 	bne	200141c <__aeabi_dmul+0x264>
 200160c:	e1a00002 	mov	r0, r2
 2001610:	e1a01003 	mov	r1, r3
 2001614:	eaffff87 	b	2001438 <__aeabi_dmul+0x280>
 2001618:	e135000c 	teq	r5, ip
 200161c:	1a000004 	bne	2001634 <__aeabi_ddiv+0x1ec>
 2001620:	e1925603 	orrs	r5, r2, r3, lsl #12
 2001624:	0affff68 	beq	20013cc <__aeabi_dmul+0x214>
 2001628:	e1a00002 	mov	r0, r2
 200162c:	e1a01003 	mov	r1, r3
 2001630:	eaffff80 	b	2001438 <__aeabi_dmul+0x280>
 2001634:	e1906081 	orrs	r6, r0, r1, lsl #1
 2001638:	11926083 	orrsne	r6, r2, r3, lsl #1
 200163c:	1affff48 	bne	2001364 <__aeabi_dmul+0x1ac>
 2001640:	e1904081 	orrs	r4, r0, r1, lsl #1
 2001644:	1affff74 	bne	200141c <__aeabi_dmul+0x264>
 2001648:	e1925083 	orrs	r5, r2, r3, lsl #1
 200164c:	1affff5e 	bne	20013cc <__aeabi_dmul+0x214>
 2001650:	eaffff78 	b	2001438 <__aeabi_dmul+0x280>

02001654 <__gedf2>:
 2001654:	e3e0c000 	mvn	ip, #0
 2001658:	ea000002 	b	2001668 <__cmpdf2+0x4>

0200165c <__ledf2>:
 200165c:	e3a0c001 	mov	ip, #1
 2001660:	ea000000 	b	2001668 <__cmpdf2+0x4>

02001664 <__cmpdf2>:
 2001664:	e3a0c001 	mov	ip, #1
 2001668:	e52dc004 	push	{ip}		@ (str ip, [sp, #-4]!)
 200166c:	e1a0c081 	lsl	ip, r1, #1
 2001670:	e1f0cacc 	mvns	ip, ip, asr #21
 2001674:	e1a0c083 	lsl	ip, r3, #1
 2001678:	11f0cacc 	mvnsne	ip, ip, asr #21
 200167c:	0a00000e 	beq	20016bc <__cmpdf2+0x58>
 2001680:	e28dd004 	add	sp, sp, #4
 2001684:	e190c081 	orrs	ip, r0, r1, lsl #1
 2001688:	0192c083 	orrseq	ip, r2, r3, lsl #1
 200168c:	11310003 	teqne	r1, r3
 2001690:	01300002 	teqeq	r0, r2
 2001694:	03a00000 	moveq	r0, #0
 2001698:	012fff1e 	bxeq	lr
 200169c:	e3700000 	cmn	r0, #0
 20016a0:	e1310003 	teq	r1, r3
 20016a4:	51510003 	cmppl	r1, r3
 20016a8:	01500002 	cmpeq	r0, r2
 20016ac:	21a00fc3 	asrcs	r0, r3, #31
 20016b0:	31e00fc3 	mvncc	r0, r3, asr #31
 20016b4:	e3800001 	orr	r0, r0, #1
 20016b8:	e12fff1e 	bx	lr
 20016bc:	e1a0c081 	lsl	ip, r1, #1
 20016c0:	e1f0cacc 	mvns	ip, ip, asr #21
 20016c4:	1a000001 	bne	20016d0 <__cmpdf2+0x6c>
 20016c8:	e190c601 	orrs	ip, r0, r1, lsl #12
 20016cc:	1a000004 	bne	20016e4 <__cmpdf2+0x80>
 20016d0:	e1a0c083 	lsl	ip, r3, #1
 20016d4:	e1f0cacc 	mvns	ip, ip, asr #21
 20016d8:	1affffe8 	bne	2001680 <__cmpdf2+0x1c>
 20016dc:	e192c603 	orrs	ip, r2, r3, lsl #12
 20016e0:	0affffe6 	beq	2001680 <__cmpdf2+0x1c>
 20016e4:	e49d0004 	pop	{r0}		@ (ldr r0, [sp], #4)
 20016e8:	e12fff1e 	bx	lr

020016ec <__aeabi_cdrcmple>:
 20016ec:	e1a0c000 	mov	ip, r0
 20016f0:	e1a00002 	mov	r0, r2
 20016f4:	e1a0200c 	mov	r2, ip
 20016f8:	e1a0c001 	mov	ip, r1
 20016fc:	e1a01003 	mov	r1, r3
 2001700:	e1a0300c 	mov	r3, ip
 2001704:	eaffffff 	b	2001708 <__aeabi_cdcmpeq>

02001708 <__aeabi_cdcmpeq>:
 2001708:	e92d4001 	push	{r0, lr}
 200170c:	ebffffd4 	bl	2001664 <__cmpdf2>
 2001710:	e3500000 	cmp	r0, #0
 2001714:	43700000 	cmnmi	r0, #0
 2001718:	e8bd4001 	pop	{r0, lr}
 200171c:	e12fff1e 	bx	lr

02001720 <__aeabi_dcmpeq>:
 2001720:	e52de008 	str	lr, [sp, #-8]!
 2001724:	ebfffff7 	bl	2001708 <__aeabi_cdcmpeq>
 2001728:	03a00001 	moveq	r0, #1
 200172c:	13a00000 	movne	r0, #0
 2001730:	e49de008 	ldr	lr, [sp], #8
 2001734:	e12fff1e 	bx	lr

02001738 <__aeabi_dcmplt>:
 2001738:	e52de008 	str	lr, [sp, #-8]!
 200173c:	ebfffff1 	bl	2001708 <__aeabi_cdcmpeq>
 2001740:	33a00001 	movcc	r0, #1
 2001744:	23a00000 	movcs	r0, #0
 2001748:	e49de008 	ldr	lr, [sp], #8
 200174c:	e12fff1e 	bx	lr

02001750 <__aeabi_dcmple>:
 2001750:	e52de008 	str	lr, [sp, #-8]!
 2001754:	ebffffeb 	bl	2001708 <__aeabi_cdcmpeq>
 2001758:	93a00001 	movls	r0, #1
 200175c:	83a00000 	movhi	r0, #0
 2001760:	e49de008 	ldr	lr, [sp], #8
 2001764:	e12fff1e 	bx	lr

02001768 <__aeabi_dcmpge>:
 2001768:	e52de008 	str	lr, [sp, #-8]!
 200176c:	ebffffde 	bl	20016ec <__aeabi_cdrcmple>
 2001770:	93a00001 	movls	r0, #1
 2001774:	83a00000 	movhi	r0, #0
 2001778:	e49de008 	ldr	lr, [sp], #8
 200177c:	e12fff1e 	bx	lr

02001780 <__aeabi_dcmpgt>:
 2001780:	e52de008 	str	lr, [sp, #-8]!
 2001784:	ebffffd8 	bl	20016ec <__aeabi_cdrcmple>
 2001788:	33a00001 	movcc	r0, #1
 200178c:	23a00000 	movcs	r0, #0
 2001790:	e49de008 	ldr	lr, [sp], #8
 2001794:	e12fff1e 	bx	lr

02001798 <__aeabi_dcmpun>:
 2001798:	e1a0c081 	lsl	ip, r1, #1
 200179c:	e1f0cacc 	mvns	ip, ip, asr #21
 20017a0:	1a000001 	bne	20017ac <__aeabi_dcmpun+0x14>
 20017a4:	e190c601 	orrs	ip, r0, r1, lsl #12
 20017a8:	1a000006 	bne	20017c8 <__aeabi_dcmpun+0x30>
 20017ac:	e1a0c083 	lsl	ip, r3, #1
 20017b0:	e1f0cacc 	mvns	ip, ip, asr #21
 20017b4:	1a000001 	bne	20017c0 <__aeabi_dcmpun+0x28>
 20017b8:	e192c603 	orrs	ip, r2, r3, lsl #12
 20017bc:	1a000001 	bne	20017c8 <__aeabi_dcmpun+0x30>
 20017c0:	e3a00000 	mov	r0, #0
 20017c4:	e12fff1e 	bx	lr
 20017c8:	e3a00001 	mov	r0, #1
 20017cc:	e12fff1e 	bx	lr

020017d0 <__aeabi_d2iz>:
 20017d0:	e1a02081 	lsl	r2, r1, #1
 20017d4:	e2922602 	adds	r2, r2, #2097152	@ 0x200000
 20017d8:	2a00000c 	bcs	2001810 <__aeabi_d2iz+0x40>
 20017dc:	5a000009 	bpl	2001808 <__aeabi_d2iz+0x38>
 20017e0:	e3e03e3e 	mvn	r3, #992	@ 0x3e0
 20017e4:	e0532ac2 	subs	r2, r3, r2, asr #21
 20017e8:	9a00000a 	bls	2001818 <__aeabi_d2iz+0x48>
 20017ec:	e1a03581 	lsl	r3, r1, #11
 20017f0:	e3833102 	orr	r3, r3, #-2147483648	@ 0x80000000
 20017f4:	e1833aa0 	orr	r3, r3, r0, lsr #21
 20017f8:	e3110102 	tst	r1, #-2147483648	@ 0x80000000
 20017fc:	e1a00233 	lsr	r0, r3, r2
 2001800:	12600000 	rsbne	r0, r0, #0
 2001804:	e12fff1e 	bx	lr
 2001808:	e3a00000 	mov	r0, #0
 200180c:	e12fff1e 	bx	lr
 2001810:	e1900601 	orrs	r0, r0, r1, lsl #12
 2001814:	1a000002 	bne	2001824 <__aeabi_d2iz+0x54>
 2001818:	e2110102 	ands	r0, r1, #-2147483648	@ 0x80000000
 200181c:	03e00102 	mvneq	r0, #-2147483648	@ 0x80000000
 2001820:	e12fff1e 	bx	lr
 2001824:	e3a00000 	mov	r0, #0
 2001828:	e12fff1e 	bx	lr

0200182c <__aeabi_uldivmod>:
 200182c:	e3530000 	cmp	r3, #0
 2001830:	03520000 	cmpeq	r2, #0
 2001834:	1a000004 	bne	200184c <__aeabi_uldivmod+0x20>
 2001838:	e3510000 	cmp	r1, #0
 200183c:	03500000 	cmpeq	r0, #0
 2001840:	13e01000 	mvnne	r1, #0
 2001844:	13e00000 	mvnne	r0, #0
 2001848:	eafffd0b 	b	2000c7c <__aeabi_idiv0>
 200184c:	e24dd008 	sub	sp, sp, #8
 2001850:	e92d6000 	push	{sp, lr}
 2001854:	eb0046db 	bl	20133c8 <__udivmoddi4>
 2001858:	e59de004 	ldr	lr, [sp, #4]
 200185c:	e28dd008 	add	sp, sp, #8
 2001860:	e8bd000c 	pop	{r2, r3}
 2001864:	e12fff1e 	bx	lr

02001868 <__clzdi2>:
 2001868:	e92d4010 	push	{r4, lr}
 200186c:	e3510000 	cmp	r1, #0
 2001870:	1a000002 	bne	2001880 <__clzdi2+0x18>
 2001874:	eb000005 	bl	2001890 <__clzsi2>
 2001878:	e2800020 	add	r0, r0, #32
 200187c:	ea000001 	b	2001888 <__clzdi2+0x20>
 2001880:	e1a00001 	mov	r0, r1
 2001884:	eb000001 	bl	2001890 <__clzsi2>
 2001888:	e8bd4010 	pop	{r4, lr}
 200188c:	e12fff1e 	bx	lr

02001890 <__clzsi2>:
 2001890:	e3a0101c 	mov	r1, #28
 2001894:	e3500801 	cmp	r0, #65536	@ 0x10000
 2001898:	21a00820 	lsrcs	r0, r0, #16
 200189c:	22411010 	subcs	r1, r1, #16
 20018a0:	e3500c01 	cmp	r0, #256	@ 0x100
 20018a4:	21a00420 	lsrcs	r0, r0, #8
 20018a8:	22411008 	subcs	r1, r1, #8
 20018ac:	e3500010 	cmp	r0, #16
 20018b0:	21a00220 	lsrcs	r0, r0, #4
 20018b4:	22411004 	subcs	r1, r1, #4
 20018b8:	e28f2008 	add	r2, pc, #8
 20018bc:	e7d20000 	ldrb	r0, [r2, r0]
 20018c0:	e0800001 	add	r0, r0, r1
 20018c4:	e12fff1e 	bx	lr
 20018c8:	02020304 	andeq	r0, r2, #4, 6	@ 0x10000000
 20018cc:	01010101 	tsteq	r1, r1, lsl #2
	...

020018d8 <__do_global_dtors_aux>:
 20018d8:	e92d4010 	push	{r4, lr}
 20018dc:	e59f4028 	ldr	r4, [pc, #40]	@ 200190c <__do_global_dtors_aux+0x34>
 20018e0:	e5d43000 	ldrb	r3, [r4]
 20018e4:	e3530000 	cmp	r3, #0
 20018e8:	1a000005 	bne	2001904 <__do_global_dtors_aux+0x2c>
 20018ec:	e59f301c 	ldr	r3, [pc, #28]	@ 2001910 <__do_global_dtors_aux+0x38>
 20018f0:	e3530000 	cmp	r3, #0
 20018f4:	159f0018 	ldrne	r0, [pc, #24]	@ 2001914 <__do_global_dtors_aux+0x3c>
 20018f8:	11a00000 	movne	r0, r0
 20018fc:	e3a03001 	mov	r3, #1
 2001900:	e5c43000 	strb	r3, [r4]
 2001904:	e8bd4010 	pop	{r4, lr}
 2001908:	e12fff1e 	bx	lr
 200190c:	0201af08 	andeq	sl, r1, #8, 30
 2001910:	00000000 	andeq	r0, r0, r0
 2001914:	020196a4 	andeq	r9, r1, #164, 12	@ 0xa400000

02001918 <frame_dummy>:
 2001918:	e59f301c 	ldr	r3, [pc, #28]	@ 200193c <frame_dummy+0x24>
 200191c:	e3530000 	cmp	r3, #0
 2001920:	012fff1e 	bxeq	lr
 2001924:	e92d4010 	push	{r4, lr}
 2001928:	e59f1010 	ldr	r1, [pc, #16]	@ 2001940 <frame_dummy+0x28>
 200192c:	e59f0010 	ldr	r0, [pc, #16]	@ 2001944 <frame_dummy+0x2c>
 2001930:	e1a00000 	nop			@ (mov r0, r0)
 2001934:	e8bd4010 	pop	{r4, lr}
 2001938:	e12fff1e 	bx	lr
 200193c:	00000000 	andeq	r0, r0, r0
 2001940:	0201af0c 	andeq	sl, r1, #12, 30	@ 0x30
 2001944:	020196a4 	andeq	r9, r1, #164, 12	@ 0xa400000

02001948 <newRow>:
 2001948:	b5f0      	push	{r4, r5, r6, r7, lr}
 200194a:	464e      	mov	r6, r9
 200194c:	46de      	mov	lr, fp
 200194e:	4657      	mov	r7, sl
 2001950:	4645      	mov	r5, r8
 2001952:	4b33      	ldr	r3, [pc, #204]	@ (2001a20 <newRow+0xd8>)
 2001954:	b5e0      	push	{r5, r6, r7, lr}
 2001956:	6819      	ldr	r1, [r3, #0]
 2001958:	b083      	sub	sp, #12
 200195a:	6a8a      	ldr	r2, [r1, #40]	@ 0x28
 200195c:	6c8e      	ldr	r6, [r1, #72]	@ 0x48
 200195e:	1c53      	adds	r3, r2, #1
 2001960:	628b      	str	r3, [r1, #40]	@ 0x28
 2001962:	42b3      	cmp	r3, r6
 2001964:	db22      	blt.n	20019ac <newRow+0x64>
 2001966:	6c4d      	ldr	r5, [r1, #68]	@ 0x44
 2001968:	628a      	str	r2, [r1, #40]	@ 0x28
 200196a:	2e01      	cmp	r6, #1
 200196c:	dd55      	ble.n	2001a1a <newRow+0xd2>
 200196e:	2000      	movs	r0, #0
 2001970:	3e01      	subs	r6, #1
 2001972:	2d00      	cmp	r5, #0
 2001974:	dc21      	bgt.n	20019ba <newRow+0x72>
 2001976:	3001      	adds	r0, #1
 2001978:	42b0      	cmp	r0, r6
 200197a:	d1fa      	bne.n	2001972 <newRow+0x2a>
 200197c:	2d00      	cmp	r5, #0
 200197e:	dd15      	ble.n	20019ac <newRow+0x64>
 2001980:	6c0a      	ldr	r2, [r1, #64]	@ 0x40
 2001982:	6b48      	ldr	r0, [r1, #52]	@ 0x34
 2001984:	18b6      	adds	r6, r6, r2
 2001986:	4370      	muls	r0, r6
 2001988:	6bcb      	ldr	r3, [r1, #60]	@ 0x3c
 200198a:	694c      	ldr	r4, [r1, #20]
 200198c:	181a      	adds	r2, r3, r0
 200198e:	18eb      	adds	r3, r5, r3
 2001990:	2550      	movs	r5, #80	@ 0x50
 2001992:	181b      	adds	r3, r3, r0
 2001994:	0052      	lsls	r2, r2, #1
 2001996:	005b      	lsls	r3, r3, #1
 2001998:	18a2      	adds	r2, r4, r2
 200199a:	18e4      	adds	r4, r4, r3
 200199c:	5b4b      	ldrh	r3, [r1, r5]
 200199e:	8988      	ldrh	r0, [r1, #12]
 20019a0:	3320      	adds	r3, #32
 20019a2:	1a1b      	subs	r3, r3, r0
 20019a4:	8013      	strh	r3, [r2, #0]
 20019a6:	3202      	adds	r2, #2
 20019a8:	4294      	cmp	r4, r2
 20019aa:	d1f7      	bne.n	200199c <newRow+0x54>
 20019ac:	b003      	add	sp, #12
 20019ae:	bcf0      	pop	{r4, r5, r6, r7}
 20019b0:	46bb      	mov	fp, r7
 20019b2:	46b2      	mov	sl, r6
 20019b4:	46a9      	mov	r9, r5
 20019b6:	46a0      	mov	r8, r4
 20019b8:	bdf0      	pop	{r4, r5, r6, r7, pc}
 20019ba:	694b      	ldr	r3, [r1, #20]
 20019bc:	46aa      	mov	sl, r5
 20019be:	469c      	mov	ip, r3
 20019c0:	6bcb      	ldr	r3, [r1, #60]	@ 0x3c
 20019c2:	9600      	str	r6, [sp, #0]
 20019c4:	4698      	mov	r8, r3
 20019c6:	6c0b      	ldr	r3, [r1, #64]	@ 0x40
 20019c8:	0004      	movs	r4, r0
 20019ca:	4699      	mov	r9, r3
 20019cc:	46ab      	mov	fp, r5
 20019ce:	4666      	mov	r6, ip
 20019d0:	6b4f      	ldr	r7, [r1, #52]	@ 0x34
 20019d2:	44c2      	add	sl, r8
 20019d4:	9101      	str	r1, [sp, #4]
 20019d6:	464b      	mov	r3, r9
 20019d8:	4651      	mov	r1, sl
 20019da:	18e2      	adds	r2, r4, r3
 20019dc:	4643      	mov	r3, r8
 20019de:	3201      	adds	r2, #1
 20019e0:	437a      	muls	r2, r7
 20019e2:	189b      	adds	r3, r3, r2
 20019e4:	188d      	adds	r5, r1, r2
 20019e6:	0050      	lsls	r0, r2, #1
 20019e8:	1bd2      	subs	r2, r2, r7
 20019ea:	4240      	negs	r0, r0
 20019ec:	0052      	lsls	r2, r2, #1
 20019ee:	46a4      	mov	ip, r4
 20019f0:	0004      	movs	r4, r0
 20019f2:	0010      	movs	r0, r2
 20019f4:	005b      	lsls	r3, r3, #1
 20019f6:	006d      	lsls	r5, r5, #1
 20019f8:	18f3      	adds	r3, r6, r3
 20019fa:	1975      	adds	r5, r6, r5
 20019fc:	881a      	ldrh	r2, [r3, #0]
 20019fe:	1919      	adds	r1, r3, r4
 2001a00:	3302      	adds	r3, #2
 2001a02:	520a      	strh	r2, [r1, r0]
 2001a04:	42ab      	cmp	r3, r5
 2001a06:	d1f9      	bne.n	20019fc <newRow+0xb4>
 2001a08:	4664      	mov	r4, ip
 2001a0a:	9b00      	ldr	r3, [sp, #0]
 2001a0c:	3401      	adds	r4, #1
 2001a0e:	429c      	cmp	r4, r3
 2001a10:	d1e1      	bne.n	20019d6 <newRow+0x8e>
 2001a12:	001e      	movs	r6, r3
 2001a14:	465d      	mov	r5, fp
 2001a16:	9901      	ldr	r1, [sp, #4]
 2001a18:	e7b0      	b.n	200197c <newRow+0x34>
 2001a1a:	2600      	movs	r6, #0
 2001a1c:	e7ae      	b.n	200197c <newRow+0x34>
 2001a1e:	46c0      	nop			@ (mov r8, r8)
 2001a20:	020196d4 	andeq	r9, r1, #212, 12	@ 0xd400000

02001a24 <consolePrintChar>:
 2001a24:	b570      	push	{r4, r5, r6, lr}
 2001a26:	1e04      	subs	r4, r0, #0
 2001a28:	d021      	beq.n	2001a6e <consolePrintChar+0x4a>
 2001a2a:	4e35      	ldr	r6, [pc, #212]	@ (2001b00 <consolePrintChar+0xdc>)
 2001a2c:	6835      	ldr	r5, [r6, #0]
 2001a2e:	696b      	ldr	r3, [r5, #20]
 2001a30:	2b00      	cmp	r3, #0
 2001a32:	d01c      	beq.n	2001a6e <consolePrintChar+0x4a>
 2001a34:	6d6b      	ldr	r3, [r5, #84]	@ 0x54
 2001a36:	2b00      	cmp	r3, #0
 2001a38:	d005      	beq.n	2001a46 <consolePrintChar+0x22>
 2001a3a:	0001      	movs	r1, r0
 2001a3c:	0028      	movs	r0, r5
 2001a3e:	4798      	blx	r3
 2001a40:	2800      	cmp	r0, #0
 2001a42:	d114      	bne.n	2001a6e <consolePrintChar+0x4a>
 2001a44:	6835      	ldr	r5, [r6, #0]
 2001a46:	6a6a      	ldr	r2, [r5, #36]	@ 0x24
 2001a48:	6c6b      	ldr	r3, [r5, #68]	@ 0x44
 2001a4a:	429a      	cmp	r2, r3
 2001a4c:	da29      	bge.n	2001aa2 <consolePrintChar+0x7e>
 2001a4e:	2c0a      	cmp	r4, #10
 2001a50:	d048      	beq.n	2001ae4 <consolePrintChar+0xc0>
 2001a52:	d82b      	bhi.n	2001aac <consolePrintChar+0x88>
 2001a54:	2c08      	cmp	r4, #8
 2001a56:	d00b      	beq.n	2001a70 <consolePrintChar+0x4c>
 2001a58:	2c09      	cmp	r4, #9
 2001a5a:	d12c      	bne.n	2001ab6 <consolePrintChar+0x92>
 2001a5c:	6a6e      	ldr	r6, [r5, #36]	@ 0x24
 2001a5e:	6cec      	ldr	r4, [r5, #76]	@ 0x4c
 2001a60:	0030      	movs	r0, r6
 2001a62:	0021      	movs	r1, r4
 2001a64:	f011 fd5a 	bl	201351c <____aeabi_idivmod_from_thumb>
 2001a68:	1a64      	subs	r4, r4, r1
 2001a6a:	19a4      	adds	r4, r4, r6
 2001a6c:	626c      	str	r4, [r5, #36]	@ 0x24
 2001a6e:	bd70      	pop	{r4, r5, r6, pc}
 2001a70:	6a6b      	ldr	r3, [r5, #36]	@ 0x24
 2001a72:	6aaa      	ldr	r2, [r5, #40]	@ 0x28
 2001a74:	3b01      	subs	r3, #1
 2001a76:	6be9      	ldr	r1, [r5, #60]	@ 0x3c
 2001a78:	626b      	str	r3, [r5, #36]	@ 0x24
 2001a7a:	2b00      	cmp	r3, #0
 2001a7c:	db35      	blt.n	2001aea <consolePrintChar+0xc6>
 2001a7e:	18c9      	adds	r1, r1, r3
 2001a80:	6c2b      	ldr	r3, [r5, #64]	@ 0x40
 2001a82:	89a8      	ldrh	r0, [r5, #12]
 2001a84:	18d2      	adds	r2, r2, r3
 2001a86:	6b6b      	ldr	r3, [r5, #52]	@ 0x34
 2001a88:	4353      	muls	r3, r2
 2001a8a:	2250      	movs	r2, #80	@ 0x50
 2001a8c:	5aaa      	ldrh	r2, [r5, r2]
 2001a8e:	185b      	adds	r3, r3, r1
 2001a90:	3220      	adds	r2, #32
 2001a92:	1a12      	subs	r2, r2, r0
 2001a94:	2052      	movs	r0, #82	@ 0x52
 2001a96:	5a28      	ldrh	r0, [r5, r0]
 2001a98:	6969      	ldr	r1, [r5, #20]
 2001a9a:	005b      	lsls	r3, r3, #1
 2001a9c:	4302      	orrs	r2, r0
 2001a9e:	525a      	strh	r2, [r3, r1]
 2001aa0:	e7e5      	b.n	2001a6e <consolePrintChar+0x4a>
 2001aa2:	2300      	movs	r3, #0
 2001aa4:	626b      	str	r3, [r5, #36]	@ 0x24
 2001aa6:	f7ff ff4f 	bl	2001948 <newRow>
 2001aaa:	e7d0      	b.n	2001a4e <consolePrintChar+0x2a>
 2001aac:	2c0d      	cmp	r4, #13
 2001aae:	d102      	bne.n	2001ab6 <consolePrintChar+0x92>
 2001ab0:	2300      	movs	r3, #0
 2001ab2:	626b      	str	r3, [r5, #36]	@ 0x24
 2001ab4:	e7db      	b.n	2001a6e <consolePrintChar+0x4a>
 2001ab6:	2050      	movs	r0, #80	@ 0x50
 2001ab8:	5a28      	ldrh	r0, [r5, r0]
 2001aba:	6c29      	ldr	r1, [r5, #64]	@ 0x40
 2001abc:	1824      	adds	r4, r4, r0
 2001abe:	89a8      	ldrh	r0, [r5, #12]
 2001ac0:	6aab      	ldr	r3, [r5, #40]	@ 0x28
 2001ac2:	1a24      	subs	r4, r4, r0
 2001ac4:	2052      	movs	r0, #82	@ 0x52
 2001ac6:	185b      	adds	r3, r3, r1
 2001ac8:	6b69      	ldr	r1, [r5, #52]	@ 0x34
 2001aca:	6a6a      	ldr	r2, [r5, #36]	@ 0x24
 2001acc:	4359      	muls	r1, r3
 2001ace:	6beb      	ldr	r3, [r5, #60]	@ 0x3c
 2001ad0:	5a28      	ldrh	r0, [r5, r0]
 2001ad2:	18d3      	adds	r3, r2, r3
 2001ad4:	185b      	adds	r3, r3, r1
 2001ad6:	6969      	ldr	r1, [r5, #20]
 2001ad8:	005b      	lsls	r3, r3, #1
 2001ada:	4304      	orrs	r4, r0
 2001adc:	3201      	adds	r2, #1
 2001ade:	525c      	strh	r4, [r3, r1]
 2001ae0:	626a      	str	r2, [r5, #36]	@ 0x24
 2001ae2:	e7c4      	b.n	2001a6e <consolePrintChar+0x4a>
 2001ae4:	f7ff ff30 	bl	2001948 <newRow>
 2001ae8:	e7e2      	b.n	2001ab0 <consolePrintChar+0x8c>
 2001aea:	2a00      	cmp	r2, #0
 2001aec:	dd04      	ble.n	2001af8 <consolePrintChar+0xd4>
 2001aee:	1e4b      	subs	r3, r1, #1
 2001af0:	3a01      	subs	r2, #1
 2001af2:	626b      	str	r3, [r5, #36]	@ 0x24
 2001af4:	62aa      	str	r2, [r5, #40]	@ 0x28
 2001af6:	e7c2      	b.n	2001a7e <consolePrintChar+0x5a>
 2001af8:	2300      	movs	r3, #0
 2001afa:	626b      	str	r3, [r5, #36]	@ 0x24
 2001afc:	e7c0      	b.n	2001a80 <consolePrintChar+0x5c>
 2001afe:	46c0      	nop			@ (mov r8, r8)
 2001b00:	020196d4 	andeq	r9, r1, #212, 12	@ 0xd400000

02001b04 <con_write>:
 2001b04:	b5f0      	push	{r4, r5, r6, r7, lr}
 2001b06:	464f      	mov	r7, r9
 2001b08:	46d6      	mov	lr, sl
 2001b0a:	4646      	mov	r6, r8
 2001b0c:	b5c0      	push	{r6, r7, lr}
 2001b0e:	001f      	movs	r7, r3
 2001b10:	2300      	movs	r3, #0
 2001b12:	b082      	sub	sp, #8
 2001b14:	9300      	str	r3, [sp, #0]
 2001b16:	2a00      	cmp	r2, #0
 2001b18:	d100      	bne.n	2001b1c <con_write+0x18>
 2001b1a:	e170      	b.n	2001dfe <con_write+0x2fa>
 2001b1c:	2f00      	cmp	r7, #0
 2001b1e:	d100      	bne.n	2001b22 <con_write+0x1e>
 2001b20:	e16d      	b.n	2001dfe <con_write+0x2fa>
 2001b22:	2500      	movs	r5, #0
 2001b24:	7810      	ldrb	r0, [r2, #0]
 2001b26:	1c56      	adds	r6, r2, #1
 2001b28:	1c6c      	adds	r4, r5, #1
 2001b2a:	281b      	cmp	r0, #27
 2001b2c:	d102      	bne.n	2001b34 <con_write+0x30>
 2001b2e:	7853      	ldrb	r3, [r2, #1]
 2001b30:	2b5b      	cmp	r3, #91	@ 0x5b
 2001b32:	d00c      	beq.n	2001b4e <con_write+0x4a>
 2001b34:	f7ff ff76 	bl	2001a24 <consolePrintChar>
 2001b38:	0025      	movs	r5, r4
 2001b3a:	0032      	movs	r2, r6
 2001b3c:	42bc      	cmp	r4, r7
 2001b3e:	d3f1      	bcc.n	2001b24 <con_write+0x20>
 2001b40:	0028      	movs	r0, r5
 2001b42:	b002      	add	sp, #8
 2001b44:	bce0      	pop	{r5, r6, r7}
 2001b46:	46ba      	mov	sl, r7
 2001b48:	46b1      	mov	r9, r6
 2001b4a:	46a8      	mov	r8, r5
 2001b4c:	bdf0      	pop	{r4, r5, r6, r7, pc}
 2001b4e:	1b53      	subs	r3, r2, r5
 2001b50:	4699      	mov	r9, r3
 2001b52:	4bac      	ldr	r3, [pc, #688]	@ (2001e04 <con_write+0x300>)
 2001b54:	469a      	mov	sl, r3
 2001b56:	1b73      	subs	r3, r6, r5
 2001b58:	469c      	mov	ip, r3
 2001b5a:	4649      	mov	r1, r9
 2001b5c:	46a0      	mov	r8, r4
 2001b5e:	5d09      	ldrb	r1, [r1, r4]
 2001b60:	1b60      	subs	r0, r4, r5
 2001b62:	3941      	subs	r1, #65	@ 0x41
 2001b64:	0609      	lsls	r1, r1, #24
 2001b66:	3801      	subs	r0, #1
 2001b68:	44e0      	add	r8, ip
 2001b6a:	3401      	adds	r4, #1
 2001b6c:	0e09      	lsrs	r1, r1, #24
 2001b6e:	2934      	cmp	r1, #52	@ 0x34
 2001b70:	d8f3      	bhi.n	2001b5a <con_write+0x56>
 2001b72:	4653      	mov	r3, sl
 2001b74:	0089      	lsls	r1, r1, #2
 2001b76:	585b      	ldr	r3, [r3, r1]
 2001b78:	469f      	mov	pc, r3
 2001b7a:	4ba3      	ldr	r3, [pc, #652]	@ (2001e08 <con_write+0x304>)
 2001b7c:	0030      	movs	r0, r6
 2001b7e:	681a      	ldr	r2, [r3, #0]
 2001b80:	49a2      	ldr	r1, [pc, #648]	@ (2001e0c <con_write+0x308>)
 2001b82:	0013      	movs	r3, r2
 2001b84:	3228      	adds	r2, #40	@ 0x28
 2001b86:	3324      	adds	r3, #36	@ 0x24
 2001b88:	f011 fcda 	bl	2013540 <__siscanf_from_thumb>
 2001b8c:	4642      	mov	r2, r8
 2001b8e:	0025      	movs	r5, r4
 2001b90:	e7d4      	b.n	2001b3c <con_write+0x38>
 2001b92:	499f      	ldr	r1, [pc, #636]	@ (2001e10 <con_write+0x30c>)
 2001b94:	aa01      	add	r2, sp, #4
 2001b96:	0030      	movs	r0, r6
 2001b98:	f011 fcd2 	bl	2013540 <__siscanf_from_thumb>
 2001b9c:	4b9a      	ldr	r3, [pc, #616]	@ (2001e08 <con_write+0x304>)
 2001b9e:	9a01      	ldr	r2, [sp, #4]
 2001ba0:	6819      	ldr	r1, [r3, #0]
 2001ba2:	6a4b      	ldr	r3, [r1, #36]	@ 0x24
 2001ba4:	1a9b      	subs	r3, r3, r2
 2001ba6:	43da      	mvns	r2, r3
 2001ba8:	17d2      	asrs	r2, r2, #31
 2001baa:	4013      	ands	r3, r2
 2001bac:	624b      	str	r3, [r1, #36]	@ 0x24
 2001bae:	e7ed      	b.n	2001b8c <con_write+0x88>
 2001bb0:	4998      	ldr	r1, [pc, #608]	@ (2001e14 <con_write+0x310>)
 2001bb2:	aa01      	add	r2, sp, #4
 2001bb4:	0030      	movs	r0, r6
 2001bb6:	f011 fcc3 	bl	2013540 <__siscanf_from_thumb>
 2001bba:	4b93      	ldr	r3, [pc, #588]	@ (2001e08 <con_write+0x304>)
 2001bbc:	9801      	ldr	r0, [sp, #4]
 2001bbe:	681a      	ldr	r2, [r3, #0]
 2001bc0:	6a53      	ldr	r3, [r2, #36]	@ 0x24
 2001bc2:	6c51      	ldr	r1, [r2, #68]	@ 0x44
 2001bc4:	181b      	adds	r3, r3, r0
 2001bc6:	4299      	cmp	r1, r3
 2001bc8:	dc00      	bgt.n	2001bcc <con_write+0xc8>
 2001bca:	1e4b      	subs	r3, r1, #1
 2001bcc:	6253      	str	r3, [r2, #36]	@ 0x24
 2001bce:	e7dd      	b.n	2001b8c <con_write+0x88>
 2001bd0:	4991      	ldr	r1, [pc, #580]	@ (2001e18 <con_write+0x314>)
 2001bd2:	aa01      	add	r2, sp, #4
 2001bd4:	0030      	movs	r0, r6
 2001bd6:	f011 fcb3 	bl	2013540 <__siscanf_from_thumb>
 2001bda:	4b8b      	ldr	r3, [pc, #556]	@ (2001e08 <con_write+0x304>)
 2001bdc:	9801      	ldr	r0, [sp, #4]
 2001bde:	681a      	ldr	r2, [r3, #0]
 2001be0:	6a93      	ldr	r3, [r2, #40]	@ 0x28
 2001be2:	6c91      	ldr	r1, [r2, #72]	@ 0x48
 2001be4:	181b      	adds	r3, r3, r0
 2001be6:	4299      	cmp	r1, r3
 2001be8:	dc00      	bgt.n	2001bec <con_write+0xe8>
 2001bea:	1e4b      	subs	r3, r1, #1
 2001bec:	6293      	str	r3, [r2, #40]	@ 0x28
 2001bee:	e7cd      	b.n	2001b8c <con_write+0x88>
 2001bf0:	498a      	ldr	r1, [pc, #552]	@ (2001e1c <con_write+0x318>)
 2001bf2:	aa01      	add	r2, sp, #4
 2001bf4:	0030      	movs	r0, r6
 2001bf6:	f011 fca3 	bl	2013540 <__siscanf_from_thumb>
 2001bfa:	4b83      	ldr	r3, [pc, #524]	@ (2001e08 <con_write+0x304>)
 2001bfc:	9a01      	ldr	r2, [sp, #4]
 2001bfe:	6819      	ldr	r1, [r3, #0]
 2001c00:	6a8b      	ldr	r3, [r1, #40]	@ 0x28
 2001c02:	1a9b      	subs	r3, r3, r2
 2001c04:	43da      	mvns	r2, r3
 2001c06:	17d2      	asrs	r2, r2, #31
 2001c08:	4013      	ands	r3, r2
 2001c0a:	628b      	str	r3, [r1, #40]	@ 0x28
 2001c0c:	e7be      	b.n	2001b8c <con_write+0x88>
 2001c0e:	4b7e      	ldr	r3, [pc, #504]	@ (2001e08 <con_write+0x304>)
 2001c10:	681b      	ldr	r3, [r3, #0]
 2001c12:	6b1a      	ldr	r2, [r3, #48]	@ 0x30
 2001c14:	6ad9      	ldr	r1, [r3, #44]	@ 0x2c
 2001c16:	629a      	str	r2, [r3, #40]	@ 0x28
 2001c18:	6259      	str	r1, [r3, #36]	@ 0x24
 2001c1a:	e7b7      	b.n	2001b8c <con_write+0x88>
 2001c1c:	4b7a      	ldr	r3, [pc, #488]	@ (2001e08 <con_write+0x304>)
 2001c1e:	681b      	ldr	r3, [r3, #0]
 2001c20:	6a9a      	ldr	r2, [r3, #40]	@ 0x28
 2001c22:	6a59      	ldr	r1, [r3, #36]	@ 0x24
 2001c24:	631a      	str	r2, [r3, #48]	@ 0x30
 2001c26:	62d9      	str	r1, [r3, #44]	@ 0x2c
 2001c28:	e7b0      	b.n	2001b8c <con_write+0x88>
 2001c2a:	466b      	mov	r3, sp
 2001c2c:	aa01      	add	r2, sp, #4
 2001c2e:	0030      	movs	r0, r6
 2001c30:	497b      	ldr	r1, [pc, #492]	@ (2001e20 <con_write+0x31c>)
 2001c32:	f011 fc85 	bl	2013540 <__siscanf_from_thumb>
 2001c36:	9a01      	ldr	r2, [sp, #4]
 2001c38:	0013      	movs	r3, r2
 2001c3a:	3b1e      	subs	r3, #30
 2001c3c:	2a27      	cmp	r2, #39	@ 0x27
 2001c3e:	d057      	beq.n	2001cf0 <con_write+0x1ec>
 2001c40:	2b08      	cmp	r3, #8
 2001c42:	dc00      	bgt.n	2001c46 <con_write+0x142>
 2001c44:	e0a8      	b.n	2001d98 <con_write+0x294>
 2001c46:	3b02      	subs	r3, #2
 2001c48:	2b0f      	cmp	r3, #15
 2001c4a:	d89f      	bhi.n	2001b8c <con_write+0x88>
 2001c4c:	071b      	lsls	r3, r3, #28
 2001c4e:	0c1b      	lsrs	r3, r3, #16
 2001c50:	e050      	b.n	2001cf4 <con_write+0x1f0>
 2001c52:	4d6d      	ldr	r5, [pc, #436]	@ (2001e08 <con_write+0x304>)
 2001c54:	5c12      	ldrb	r2, [r2, r0]
 2001c56:	682b      	ldr	r3, [r5, #0]
 2001c58:	6a5e      	ldr	r6, [r3, #36]	@ 0x24
 2001c5a:	6c59      	ldr	r1, [r3, #68]	@ 0x44
 2001c5c:	2a32      	cmp	r2, #50	@ 0x32
 2001c5e:	d100      	bne.n	2001c62 <con_write+0x15e>
 2001c60:	e0ba      	b.n	2001dd8 <con_write+0x2d4>
 2001c62:	d875      	bhi.n	2001d50 <con_write+0x24c>
 2001c64:	2a30      	cmp	r2, #48	@ 0x30
 2001c66:	d100      	bne.n	2001c6a <con_write+0x166>
 2001c68:	e085      	b.n	2001d76 <con_write+0x272>
 2001c6a:	2a31      	cmp	r2, #49	@ 0x31
 2001c6c:	d172      	bne.n	2001d54 <con_write+0x250>
 2001c6e:	2200      	movs	r2, #0
 2001c70:	1b89      	subs	r1, r1, r6
 2001c72:	625a      	str	r2, [r3, #36]	@ 0x24
 2001c74:	2902      	cmp	r1, #2
 2001c76:	dd0d      	ble.n	2001c94 <con_write+0x190>
 2001c78:	2300      	movs	r3, #0
 2001c7a:	4699      	mov	r9, r3
 2001c7c:	2020      	movs	r0, #32
 2001c7e:	f7ff fed1 	bl	2001a24 <consolePrintChar>
 2001c82:	2201      	movs	r2, #1
 2001c84:	4694      	mov	ip, r2
 2001c86:	682b      	ldr	r3, [r5, #0]
 2001c88:	44e1      	add	r9, ip
 2001c8a:	6c5a      	ldr	r2, [r3, #68]	@ 0x44
 2001c8c:	1b92      	subs	r2, r2, r6
 2001c8e:	3a02      	subs	r2, #2
 2001c90:	454a      	cmp	r2, r9
 2001c92:	dcf3      	bgt.n	2001c7c <con_write+0x178>
 2001c94:	625e      	str	r6, [r3, #36]	@ 0x24
 2001c96:	e779      	b.n	2001b8c <con_write+0x88>
 2001c98:	5c13      	ldrb	r3, [r2, r0]
 2001c9a:	2b32      	cmp	r3, #50	@ 0x32
 2001c9c:	d100      	bne.n	2001ca0 <con_write+0x19c>
 2001c9e:	e082      	b.n	2001da6 <con_write+0x2a2>
 2001ca0:	d82d      	bhi.n	2001cfe <con_write+0x1fa>
 2001ca2:	2b30      	cmp	r3, #48	@ 0x30
 2001ca4:	d02e      	beq.n	2001d04 <con_write+0x200>
 2001ca6:	2b31      	cmp	r3, #49	@ 0x31
 2001ca8:	d000      	beq.n	2001cac <con_write+0x1a8>
 2001caa:	e76f      	b.n	2001b8c <con_write+0x88>
 2001cac:	4d56      	ldr	r5, [pc, #344]	@ (2001e08 <con_write+0x304>)
 2001cae:	682a      	ldr	r2, [r5, #0]
 2001cb0:	6a53      	ldr	r3, [r2, #36]	@ 0x24
 2001cb2:	469a      	mov	sl, r3
 2001cb4:	6a93      	ldr	r3, [r2, #40]	@ 0x28
 2001cb6:	4699      	mov	r9, r3
 2001cb8:	2300      	movs	r3, #0
 2001cba:	6293      	str	r3, [r2, #40]	@ 0x28
 2001cbc:	6253      	str	r3, [r2, #36]	@ 0x24
 2001cbe:	6c53      	ldr	r3, [r2, #68]	@ 0x44
 2001cc0:	0019      	movs	r1, r3
 2001cc2:	464b      	mov	r3, r9
 2001cc4:	434b      	muls	r3, r1
 2001cc6:	4453      	add	r3, sl
 2001cc8:	2b00      	cmp	r3, #0
 2001cca:	dd0c      	ble.n	2001ce6 <con_write+0x1e2>
 2001ccc:	2600      	movs	r6, #0
 2001cce:	2020      	movs	r0, #32
 2001cd0:	f7ff fea8 	bl	2001a24 <consolePrintChar>
 2001cd4:	682a      	ldr	r2, [r5, #0]
 2001cd6:	3601      	adds	r6, #1
 2001cd8:	6c53      	ldr	r3, [r2, #68]	@ 0x44
 2001cda:	0019      	movs	r1, r3
 2001cdc:	464b      	mov	r3, r9
 2001cde:	434b      	muls	r3, r1
 2001ce0:	4453      	add	r3, sl
 2001ce2:	429e      	cmp	r6, r3
 2001ce4:	dbf3      	blt.n	2001cce <con_write+0x1ca>
 2001ce6:	4653      	mov	r3, sl
 2001ce8:	6253      	str	r3, [r2, #36]	@ 0x24
 2001cea:	464b      	mov	r3, r9
 2001cec:	6293      	str	r3, [r2, #40]	@ 0x28
 2001cee:	e74d      	b.n	2001b8c <con_write+0x88>
 2001cf0:	23f0      	movs	r3, #240	@ 0xf0
 2001cf2:	021b      	lsls	r3, r3, #8
 2001cf4:	4a44      	ldr	r2, [pc, #272]	@ (2001e08 <con_write+0x304>)
 2001cf6:	6811      	ldr	r1, [r2, #0]
 2001cf8:	2252      	movs	r2, #82	@ 0x52
 2001cfa:	528b      	strh	r3, [r1, r2]
 2001cfc:	e746      	b.n	2001b8c <con_write+0x88>
 2001cfe:	2b5b      	cmp	r3, #91	@ 0x5b
 2001d00:	d000      	beq.n	2001d04 <con_write+0x200>
 2001d02:	e743      	b.n	2001b8c <con_write+0x88>
 2001d04:	4d40      	ldr	r5, [pc, #256]	@ (2001e08 <con_write+0x304>)
 2001d06:	6829      	ldr	r1, [r5, #0]
 2001d08:	6a4b      	ldr	r3, [r1, #36]	@ 0x24
 2001d0a:	6c8a      	ldr	r2, [r1, #72]	@ 0x48
 2001d0c:	469a      	mov	sl, r3
 2001d0e:	6a8b      	ldr	r3, [r1, #40]	@ 0x28
 2001d10:	4699      	mov	r9, r3
 2001d12:	6c4b      	ldr	r3, [r1, #68]	@ 0x44
 2001d14:	435a      	muls	r2, r3
 2001d16:	6b4b      	ldr	r3, [r1, #52]	@ 0x34
 2001d18:	0018      	movs	r0, r3
 2001d1a:	464b      	mov	r3, r9
 2001d1c:	4343      	muls	r3, r0
 2001d1e:	4453      	add	r3, sl
 2001d20:	429a      	cmp	r2, r3
 2001d22:	dd10      	ble.n	2001d46 <con_write+0x242>
 2001d24:	2600      	movs	r6, #0
 2001d26:	2020      	movs	r0, #32
 2001d28:	f7ff fe7c 	bl	2001a24 <consolePrintChar>
 2001d2c:	6829      	ldr	r1, [r5, #0]
 2001d2e:	3601      	adds	r6, #1
 2001d30:	6c8a      	ldr	r2, [r1, #72]	@ 0x48
 2001d32:	6c4b      	ldr	r3, [r1, #68]	@ 0x44
 2001d34:	4353      	muls	r3, r2
 2001d36:	6b4a      	ldr	r2, [r1, #52]	@ 0x34
 2001d38:	0010      	movs	r0, r2
 2001d3a:	464a      	mov	r2, r9
 2001d3c:	4342      	muls	r2, r0
 2001d3e:	4452      	add	r2, sl
 2001d40:	1a9b      	subs	r3, r3, r2
 2001d42:	429e      	cmp	r6, r3
 2001d44:	dbef      	blt.n	2001d26 <con_write+0x222>
 2001d46:	4653      	mov	r3, sl
 2001d48:	624b      	str	r3, [r1, #36]	@ 0x24
 2001d4a:	464b      	mov	r3, r9
 2001d4c:	628b      	str	r3, [r1, #40]	@ 0x28
 2001d4e:	e71d      	b.n	2001b8c <con_write+0x88>
 2001d50:	2a5b      	cmp	r2, #91	@ 0x5b
 2001d52:	d010      	beq.n	2001d76 <con_write+0x272>
 2001d54:	42b1      	cmp	r1, r6
 2001d56:	dd9d      	ble.n	2001c94 <con_write+0x190>
 2001d58:	2300      	movs	r3, #0
 2001d5a:	4699      	mov	r9, r3
 2001d5c:	2020      	movs	r0, #32
 2001d5e:	f7ff fe61 	bl	2001a24 <consolePrintChar>
 2001d62:	2201      	movs	r2, #1
 2001d64:	4694      	mov	ip, r2
 2001d66:	682b      	ldr	r3, [r5, #0]
 2001d68:	44e1      	add	r9, ip
 2001d6a:	6c5a      	ldr	r2, [r3, #68]	@ 0x44
 2001d6c:	1b92      	subs	r2, r2, r6
 2001d6e:	454a      	cmp	r2, r9
 2001d70:	dcf4      	bgt.n	2001d5c <con_write+0x258>
 2001d72:	625e      	str	r6, [r3, #36]	@ 0x24
 2001d74:	e70a      	b.n	2001b8c <con_write+0x88>
 2001d76:	42b1      	cmp	r1, r6
 2001d78:	dd8c      	ble.n	2001c94 <con_write+0x190>
 2001d7a:	2300      	movs	r3, #0
 2001d7c:	4699      	mov	r9, r3
 2001d7e:	2020      	movs	r0, #32
 2001d80:	f7ff fe50 	bl	2001a24 <consolePrintChar>
 2001d84:	2201      	movs	r2, #1
 2001d86:	4694      	mov	ip, r2
 2001d88:	682b      	ldr	r3, [r5, #0]
 2001d8a:	44e1      	add	r9, ip
 2001d8c:	6c5a      	ldr	r2, [r3, #68]	@ 0x44
 2001d8e:	1b92      	subs	r2, r2, r6
 2001d90:	454a      	cmp	r2, r9
 2001d92:	dcf4      	bgt.n	2001d7e <con_write+0x27a>
 2001d94:	625e      	str	r6, [r3, #36]	@ 0x24
 2001d96:	e6f9      	b.n	2001b8c <con_write+0x88>
 2001d98:	9900      	ldr	r1, [sp, #0]
 2001d9a:	2900      	cmp	r1, #0
 2001d9c:	d100      	bne.n	2001da0 <con_write+0x29c>
 2001d9e:	e753      	b.n	2001c48 <con_write+0x144>
 2001da0:	0013      	movs	r3, r2
 2001da2:	3b16      	subs	r3, #22
 2001da4:	e750      	b.n	2001c48 <con_write+0x144>
 2001da6:	2300      	movs	r3, #0
 2001da8:	4d17      	ldr	r5, [pc, #92]	@ (2001e08 <con_write+0x304>)
 2001daa:	682a      	ldr	r2, [r5, #0]
 2001dac:	6c51      	ldr	r1, [r2, #68]	@ 0x44
 2001dae:	6293      	str	r3, [r2, #40]	@ 0x28
 2001db0:	6253      	str	r3, [r2, #36]	@ 0x24
 2001db2:	6c93      	ldr	r3, [r2, #72]	@ 0x48
 2001db4:	434b      	muls	r3, r1
 2001db6:	2b00      	cmp	r3, #0
 2001db8:	dd0a      	ble.n	2001dd0 <con_write+0x2cc>
 2001dba:	2600      	movs	r6, #0
 2001dbc:	2020      	movs	r0, #32
 2001dbe:	f7ff fe31 	bl	2001a24 <consolePrintChar>
 2001dc2:	682a      	ldr	r2, [r5, #0]
 2001dc4:	3601      	adds	r6, #1
 2001dc6:	6c91      	ldr	r1, [r2, #72]	@ 0x48
 2001dc8:	6c53      	ldr	r3, [r2, #68]	@ 0x44
 2001dca:	434b      	muls	r3, r1
 2001dcc:	429e      	cmp	r6, r3
 2001dce:	dbf5      	blt.n	2001dbc <con_write+0x2b8>
 2001dd0:	2300      	movs	r3, #0
 2001dd2:	6293      	str	r3, [r2, #40]	@ 0x28
 2001dd4:	6253      	str	r3, [r2, #36]	@ 0x24
 2001dd6:	e6d9      	b.n	2001b8c <con_write+0x88>
 2001dd8:	2200      	movs	r2, #0
 2001dda:	625a      	str	r2, [r3, #36]	@ 0x24
 2001ddc:	2900      	cmp	r1, #0
 2001dde:	dc00      	bgt.n	2001de2 <con_write+0x2de>
 2001de0:	e758      	b.n	2001c94 <con_write+0x190>
 2001de2:	2300      	movs	r3, #0
 2001de4:	4699      	mov	r9, r3
 2001de6:	2020      	movs	r0, #32
 2001de8:	f7ff fe1c 	bl	2001a24 <consolePrintChar>
 2001dec:	2201      	movs	r2, #1
 2001dee:	4694      	mov	ip, r2
 2001df0:	682b      	ldr	r3, [r5, #0]
 2001df2:	44e1      	add	r9, ip
 2001df4:	6c5a      	ldr	r2, [r3, #68]	@ 0x44
 2001df6:	454a      	cmp	r2, r9
 2001df8:	dcf5      	bgt.n	2001de6 <con_write+0x2e2>
 2001dfa:	625e      	str	r6, [r3, #36]	@ 0x24
 2001dfc:	e6c6      	b.n	2001b8c <con_write+0x88>
 2001dfe:	2501      	movs	r5, #1
 2001e00:	426d      	negs	r5, r5
 2001e02:	e69d      	b.n	2001b40 <con_write+0x3c>
 2001e04:	02013714 	andeq	r3, r1, #20, 14	@ 0x500000
 2001e08:	020196d4 	andeq	r9, r1, #212, 12	@ 0xd400000
 2001e0c:	020135bc 	andeq	r3, r1, #188, 10	@ 0x2f000000
 2001e10:	020135b4 	andeq	r3, r1, #180, 10	@ 0x2d000000
 2001e14:	020135ac 	andeq	r3, r1, #172, 10	@ 0x2b000000
 2001e18:	020135a4 	andeq	r3, r1, #164, 10	@ 0x29000000
 2001e1c:	0201359c 	andeq	r3, r1, #156, 10	@ 0x27000000
 2001e20:	020135c4 	andeq	r3, r1, #196, 10	@ 0x31000000

02001e24 <consoleLoadFont>:
 2001e24:	b5f0      	push	{r4, r5, r6, r7, lr}
 2001e26:	4645      	mov	r5, r8
 2001e28:	46de      	mov	lr, fp
 2001e2a:	4657      	mov	r7, sl
 2001e2c:	464e      	mov	r6, r9
 2001e2e:	23c4      	movs	r3, #196	@ 0xc4
 2001e30:	b5e0      	push	{r5, r6, r7, lr}
 2001e32:	6985      	ldr	r5, [r0, #24]
 2001e34:	04db      	lsls	r3, r3, #19
 2001e36:	4a97      	ldr	r2, [pc, #604]	@ (2002094 <consoleLoadFont+0x270>)
 2001e38:	429d      	cmp	r5, r3
 2001e3a:	419b      	sbcs	r3, r3
 2001e3c:	4694      	mov	ip, r2
 2001e3e:	0a9b      	lsrs	r3, r3, #10
 2001e40:	7a82      	ldrb	r2, [r0, #10]
 2001e42:	029b      	lsls	r3, r3, #10
 2001e44:	b083      	sub	sp, #12
 2001e46:	4463      	add	r3, ip
 2001e48:	2a01      	cmp	r2, #1
 2001e4a:	d004      	beq.n	2001e56 <consoleLoadFont+0x32>
 2001e4c:	2a04      	cmp	r2, #4
 2001e4e:	d024      	beq.n	2001e9a <consoleLoadFont+0x76>
 2001e50:	2a08      	cmp	r2, #8
 2001e52:	d100      	bne.n	2001e56 <consoleLoadFont+0x32>
 2001e54:	e091      	b.n	2001f7a <consoleLoadFont+0x156>
 2001e56:	2200      	movs	r2, #0
 2001e58:	801a      	strh	r2, [r3, #0]
 2001e5a:	6c43      	ldr	r3, [r0, #68]	@ 0x44
 2001e5c:	6282      	str	r2, [r0, #40]	@ 0x28
 2001e5e:	6242      	str	r2, [r0, #36]	@ 0x24
 2001e60:	6c82      	ldr	r2, [r0, #72]	@ 0x48
 2001e62:	4d8d      	ldr	r5, [pc, #564]	@ (2002098 <consoleLoadFont+0x274>)
 2001e64:	4353      	muls	r3, r2
 2001e66:	682e      	ldr	r6, [r5, #0]
 2001e68:	6028      	str	r0, [r5, #0]
 2001e6a:	2b00      	cmp	r3, #0
 2001e6c:	dd0a      	ble.n	2001e84 <consoleLoadFont+0x60>
 2001e6e:	2400      	movs	r4, #0
 2001e70:	2020      	movs	r0, #32
 2001e72:	f7ff fdd7 	bl	2001a24 <consolePrintChar>
 2001e76:	6828      	ldr	r0, [r5, #0]
 2001e78:	3401      	adds	r4, #1
 2001e7a:	6c82      	ldr	r2, [r0, #72]	@ 0x48
 2001e7c:	6c43      	ldr	r3, [r0, #68]	@ 0x44
 2001e7e:	4353      	muls	r3, r2
 2001e80:	429c      	cmp	r4, r3
 2001e82:	dbf5      	blt.n	2001e70 <consoleLoadFont+0x4c>
 2001e84:	2300      	movs	r3, #0
 2001e86:	602e      	str	r6, [r5, #0]
 2001e88:	6283      	str	r3, [r0, #40]	@ 0x28
 2001e8a:	6243      	str	r3, [r0, #36]	@ 0x24
 2001e8c:	b003      	add	sp, #12
 2001e8e:	bcf0      	pop	{r4, r5, r6, r7}
 2001e90:	46bb      	mov	fp, r7
 2001e92:	46b2      	mov	sl, r6
 2001e94:	46a9      	mov	r9, r5
 2001e96:	46a0      	mov	r8, r4
 2001e98:	bdf0      	pop	{r4, r5, r6, r7, pc}
 2001e9a:	7c02      	ldrb	r2, [r0, #16]
 2001e9c:	2a00      	cmp	r2, #0
 2001e9e:	d100      	bne.n	2001ea2 <consoleLoadFont+0x7e>
 2001ea0:	e0ac      	b.n	2001ffc <consoleLoadFont+0x1d8>
 2001ea2:	4a7e      	ldr	r2, [pc, #504]	@ (200209c <consoleLoadFont+0x278>)
 2001ea4:	4693      	mov	fp, r2
 2001ea6:	2252      	movs	r2, #82	@ 0x52
 2001ea8:	4659      	mov	r1, fp
 2001eaa:	5281      	strh	r1, [r0, r2]
 2001eac:	89c2      	ldrh	r2, [r0, #14]
 2001eae:	2a00      	cmp	r2, #0
 2001eb0:	d02f      	beq.n	2001f12 <consoleLoadFont+0xee>
 2001eb2:	6802      	ldr	r2, [r0, #0]
 2001eb4:	2400      	movs	r4, #0
 2001eb6:	4692      	mov	sl, r2
 2001eb8:	22f0      	movs	r2, #240	@ 0xf0
 2001eba:	4691      	mov	r9, r2
 2001ebc:	22f0      	movs	r2, #240	@ 0xf0
 2001ebe:	0112      	lsls	r2, r2, #4
 2001ec0:	4694      	mov	ip, r2
 2001ec2:	3201      	adds	r2, #1
 2001ec4:	32ff      	adds	r2, #255	@ 0xff
 2001ec6:	4690      	mov	r8, r2
 2001ec8:	4652      	mov	r2, sl
 2001eca:	2600      	movs	r6, #0
 2001ecc:	270f      	movs	r7, #15
 2001ece:	469a      	mov	sl, r3
 2001ed0:	9201      	str	r2, [sp, #4]
 2001ed2:	003a      	movs	r2, r7
 2001ed4:	9b01      	ldr	r3, [sp, #4]
 2001ed6:	5b1b      	ldrh	r3, [r3, r4]
 2001ed8:	401a      	ands	r2, r3
 2001eda:	421f      	tst	r7, r3
 2001edc:	d000      	beq.n	2001ee0 <consoleLoadFont+0xbc>
 2001ede:	220f      	movs	r2, #15
 2001ee0:	4649      	mov	r1, r9
 2001ee2:	4219      	tst	r1, r3
 2001ee4:	d003      	beq.n	2001eee <consoleLoadFont+0xca>
 2001ee6:	21f0      	movs	r1, #240	@ 0xf0
 2001ee8:	430a      	orrs	r2, r1
 2001eea:	0412      	lsls	r2, r2, #16
 2001eec:	0c12      	lsrs	r2, r2, #16
 2001eee:	4661      	mov	r1, ip
 2001ef0:	420b      	tst	r3, r1
 2001ef2:	d000      	beq.n	2001ef6 <consoleLoadFont+0xd2>
 2001ef4:	430a      	orrs	r2, r1
 2001ef6:	4543      	cmp	r3, r8
 2001ef8:	d303      	bcc.n	2001f02 <consoleLoadFont+0xde>
 2001efa:	465b      	mov	r3, fp
 2001efc:	431a      	orrs	r2, r3
 2001efe:	0412      	lsls	r2, r2, #16
 2001f00:	0c12      	lsrs	r2, r2, #16
 2001f02:	532a      	strh	r2, [r5, r4]
 2001f04:	89c2      	ldrh	r2, [r0, #14]
 2001f06:	3601      	adds	r6, #1
 2001f08:	3402      	adds	r4, #2
 2001f0a:	0112      	lsls	r2, r2, #4
 2001f0c:	4296      	cmp	r6, r2
 2001f0e:	dbe0      	blt.n	2001ed2 <consoleLoadFont+0xae>
 2001f10:	4653      	mov	r3, sl
 2001f12:	2200      	movs	r2, #0
 2001f14:	21f0      	movs	r1, #240	@ 0xf0
 2001f16:	83da      	strh	r2, [r3, #30]
 2001f18:	320f      	adds	r2, #15
 2001f1a:	87da      	strh	r2, [r3, #62]	@ 0x3e
 2001f1c:	0049      	lsls	r1, r1, #1
 2001f1e:	324f      	adds	r2, #79	@ 0x4f
 2001f20:	5299      	strh	r1, [r3, r2]
 2001f22:	21f0      	movs	r1, #240	@ 0xf0
 2001f24:	3220      	adds	r2, #32
 2001f26:	31ff      	adds	r1, #255	@ 0xff
 2001f28:	5299      	strh	r1, [r3, r2]
 2001f2a:	21f0      	movs	r1, #240	@ 0xf0
 2001f2c:	3220      	adds	r2, #32
 2001f2e:	0189      	lsls	r1, r1, #6
 2001f30:	5299      	strh	r1, [r3, r2]
 2001f32:	495b      	ldr	r1, [pc, #364]	@ (20020a0 <consoleLoadFont+0x27c>)
 2001f34:	3220      	adds	r2, #32
 2001f36:	5299      	strh	r1, [r3, r2]
 2001f38:	495a      	ldr	r1, [pc, #360]	@ (20020a4 <consoleLoadFont+0x280>)
 2001f3a:	3220      	adds	r2, #32
 2001f3c:	5299      	strh	r1, [r3, r2]
 2001f3e:	495a      	ldr	r1, [pc, #360]	@ (20020a8 <consoleLoadFont+0x284>)
 2001f40:	3220      	adds	r2, #32
 2001f42:	5299      	strh	r1, [r3, r2]
 2001f44:	4959      	ldr	r1, [pc, #356]	@ (20020ac <consoleLoadFont+0x288>)
 2001f46:	3220      	adds	r2, #32
 2001f48:	5299      	strh	r1, [r3, r2]
 2001f4a:	211f      	movs	r1, #31
 2001f4c:	3220      	adds	r2, #32
 2001f4e:	5299      	strh	r1, [r3, r2]
 2001f50:	21f8      	movs	r1, #248	@ 0xf8
 2001f52:	3220      	adds	r2, #32
 2001f54:	0089      	lsls	r1, r1, #2
 2001f56:	5299      	strh	r1, [r3, r2]
 2001f58:	4955      	ldr	r1, [pc, #340]	@ (20020b0 <consoleLoadFont+0x28c>)
 2001f5a:	3220      	adds	r2, #32
 2001f5c:	5299      	strh	r1, [r3, r2]
 2001f5e:	21f8      	movs	r1, #248	@ 0xf8
 2001f60:	3220      	adds	r2, #32
 2001f62:	01c9      	lsls	r1, r1, #7
 2001f64:	5299      	strh	r1, [r3, r2]
 2001f66:	4953      	ldr	r1, [pc, #332]	@ (20020b4 <consoleLoadFont+0x290>)
 2001f68:	3220      	adds	r2, #32
 2001f6a:	5299      	strh	r1, [r3, r2]
 2001f6c:	4952      	ldr	r1, [pc, #328]	@ (20020b8 <consoleLoadFont+0x294>)
 2001f6e:	3220      	adds	r2, #32
 2001f70:	5299      	strh	r1, [r3, r2]
 2001f72:	4952      	ldr	r1, [pc, #328]	@ (20020bc <consoleLoadFont+0x298>)
 2001f74:	3220      	adds	r2, #32
 2001f76:	5299      	strh	r1, [r3, r2]
 2001f78:	e76d      	b.n	2001e56 <consoleLoadFont+0x32>
 2001f7a:	2100      	movs	r1, #0
 2001f7c:	324a      	adds	r2, #74	@ 0x4a
 2001f7e:	5281      	strh	r1, [r0, r2]
 2001f80:	7c02      	ldrb	r2, [r0, #16]
 2001f82:	2a00      	cmp	r2, #0
 2001f84:	d063      	beq.n	200204e <consoleLoadFont+0x22a>
 2001f86:	89c2      	ldrh	r2, [r0, #14]
 2001f88:	0116      	lsls	r6, r2, #4
 2001f8a:	2a00      	cmp	r2, #0
 2001f8c:	d031      	beq.n	2001ff2 <consoleLoadFont+0x1ce>
 2001f8e:	6802      	ldr	r2, [r0, #0]
 2001f90:	27f0      	movs	r7, #240	@ 0xf0
 2001f92:	4692      	mov	sl, r2
 2001f94:	220f      	movs	r2, #15
 2001f96:	4691      	mov	r9, r2
 2001f98:	32ef      	adds	r2, #239	@ 0xef
 2001f9a:	4690      	mov	r8, r2
 2001f9c:	3a0e      	subs	r2, #14
 2001f9e:	4694      	mov	ip, r2
 2001fa0:	2280      	movs	r2, #128	@ 0x80
 2001fa2:	0152      	lsls	r2, r2, #5
 2001fa4:	4654      	mov	r4, sl
 2001fa6:	2100      	movs	r1, #0
 2001fa8:	4693      	mov	fp, r2
 2001faa:	4682      	mov	sl, r0
 2001fac:	013f      	lsls	r7, r7, #4
 2001fae:	9301      	str	r3, [sp, #4]
 2001fb0:	004b      	lsls	r3, r1, #1
 2001fb2:	5ae2      	ldrh	r2, [r4, r3]
 2001fb4:	464b      	mov	r3, r9
 2001fb6:	4013      	ands	r3, r2
 2001fb8:	4258      	negs	r0, r3
 2001fba:	4143      	adcs	r3, r0
 2001fbc:	4640      	mov	r0, r8
 2001fbe:	425b      	negs	r3, r3
 2001fc0:	4383      	bics	r3, r0
 2001fc2:	4660      	mov	r0, ip
 2001fc4:	33ff      	adds	r3, #255	@ 0xff
 2001fc6:	4210      	tst	r0, r2
 2001fc8:	d002      	beq.n	2001fd0 <consoleLoadFont+0x1ac>
 2001fca:	20ff      	movs	r0, #255	@ 0xff
 2001fcc:	0200      	lsls	r0, r0, #8
 2001fce:	4303      	orrs	r3, r0
 2001fd0:	423a      	tst	r2, r7
 2001fd2:	d002      	beq.n	2001fda <consoleLoadFont+0x1b6>
 2001fd4:	20ff      	movs	r0, #255	@ 0xff
 2001fd6:	0400      	lsls	r0, r0, #16
 2001fd8:	4303      	orrs	r3, r0
 2001fda:	455a      	cmp	r2, fp
 2001fdc:	d302      	bcc.n	2001fe4 <consoleLoadFont+0x1c0>
 2001fde:	22ff      	movs	r2, #255	@ 0xff
 2001fe0:	0612      	lsls	r2, r2, #24
 2001fe2:	4313      	orrs	r3, r2
 2001fe4:	008a      	lsls	r2, r1, #2
 2001fe6:	3101      	adds	r1, #1
 2001fe8:	50ab      	str	r3, [r5, r2]
 2001fea:	428e      	cmp	r6, r1
 2001fec:	dce0      	bgt.n	2001fb0 <consoleLoadFont+0x18c>
 2001fee:	4650      	mov	r0, sl
 2001ff0:	9b01      	ldr	r3, [sp, #4]
 2001ff2:	22ff      	movs	r2, #255	@ 0xff
 2001ff4:	4931      	ldr	r1, [pc, #196]	@ (20020bc <consoleLoadFont+0x298>)
 2001ff6:	0052      	lsls	r2, r2, #1
 2001ff8:	5299      	strh	r1, [r3, r2]
 2001ffa:	e72c      	b.n	2001e56 <consoleLoadFont+0x32>
 2001ffc:	6802      	ldr	r2, [r0, #0]
 2001ffe:	2a00      	cmp	r2, #0
 2002000:	d00d      	beq.n	200201e <consoleLoadFont+0x1fa>
 2002002:	4c2f      	ldr	r4, [pc, #188]	@ (20020c0 <consoleLoadFont+0x29c>)
 2002004:	89c1      	ldrh	r1, [r0, #14]
 2002006:	6022      	str	r2, [r4, #0]
 2002008:	4a2e      	ldr	r2, [pc, #184]	@ (20020c4 <consoleLoadFont+0x2a0>)
 200200a:	0109      	lsls	r1, r1, #4
 200200c:	6015      	str	r5, [r2, #0]
 200200e:	2280      	movs	r2, #128	@ 0x80
 2002010:	0612      	lsls	r2, r2, #24
 2002012:	430a      	orrs	r2, r1
 2002014:	492c      	ldr	r1, [pc, #176]	@ (20020c8 <consoleLoadFont+0x2a4>)
 2002016:	600a      	str	r2, [r1, #0]
 2002018:	680a      	ldr	r2, [r1, #0]
 200201a:	2a00      	cmp	r2, #0
 200201c:	dbfc      	blt.n	2002018 <consoleLoadFont+0x1f4>
 200201e:	2152      	movs	r1, #82	@ 0x52
 2002020:	6842      	ldr	r2, [r0, #4]
 2002022:	5a44      	ldrh	r4, [r0, r1]
 2002024:	2a00      	cmp	r2, #0
 2002026:	d00e      	beq.n	2002046 <consoleLoadFont+0x222>
 2002028:	4d25      	ldr	r5, [pc, #148]	@ (20020c0 <consoleLoadFont+0x29c>)
 200202a:	8901      	ldrh	r1, [r0, #8]
 200202c:	602a      	str	r2, [r5, #0]
 200202e:	4d25      	ldr	r5, [pc, #148]	@ (20020c4 <consoleLoadFont+0x2a0>)
 2002030:	0162      	lsls	r2, r4, #5
 2002032:	189a      	adds	r2, r3, r2
 2002034:	602a      	str	r2, [r5, #0]
 2002036:	2280      	movs	r2, #128	@ 0x80
 2002038:	0612      	lsls	r2, r2, #24
 200203a:	430a      	orrs	r2, r1
 200203c:	4922      	ldr	r1, [pc, #136]	@ (20020c8 <consoleLoadFont+0x2a4>)
 200203e:	600a      	str	r2, [r1, #0]
 2002040:	680a      	ldr	r2, [r1, #0]
 2002042:	2a00      	cmp	r2, #0
 2002044:	dbfc      	blt.n	2002040 <consoleLoadFont+0x21c>
 2002046:	2252      	movs	r2, #82	@ 0x52
 2002048:	0324      	lsls	r4, r4, #12
 200204a:	5284      	strh	r4, [r0, r2]
 200204c:	e703      	b.n	2001e56 <consoleLoadFont+0x32>
 200204e:	6802      	ldr	r2, [r0, #0]
 2002050:	2a00      	cmp	r2, #0
 2002052:	d00d      	beq.n	2002070 <consoleLoadFont+0x24c>
 2002054:	4c1a      	ldr	r4, [pc, #104]	@ (20020c0 <consoleLoadFont+0x29c>)
 2002056:	89c1      	ldrh	r1, [r0, #14]
 2002058:	6022      	str	r2, [r4, #0]
 200205a:	4a1a      	ldr	r2, [pc, #104]	@ (20020c4 <consoleLoadFont+0x2a0>)
 200205c:	0149      	lsls	r1, r1, #5
 200205e:	6015      	str	r5, [r2, #0]
 2002060:	2280      	movs	r2, #128	@ 0x80
 2002062:	0612      	lsls	r2, r2, #24
 2002064:	430a      	orrs	r2, r1
 2002066:	4918      	ldr	r1, [pc, #96]	@ (20020c8 <consoleLoadFont+0x2a4>)
 2002068:	600a      	str	r2, [r1, #0]
 200206a:	680a      	ldr	r2, [r1, #0]
 200206c:	2a00      	cmp	r2, #0
 200206e:	dbfc      	blt.n	200206a <consoleLoadFont+0x246>
 2002070:	6842      	ldr	r2, [r0, #4]
 2002072:	2a00      	cmp	r2, #0
 2002074:	d100      	bne.n	2002078 <consoleLoadFont+0x254>
 2002076:	e6ee      	b.n	2001e56 <consoleLoadFont+0x32>
 2002078:	4c11      	ldr	r4, [pc, #68]	@ (20020c0 <consoleLoadFont+0x29c>)
 200207a:	8901      	ldrh	r1, [r0, #8]
 200207c:	6022      	str	r2, [r4, #0]
 200207e:	4a11      	ldr	r2, [pc, #68]	@ (20020c4 <consoleLoadFont+0x2a0>)
 2002080:	6013      	str	r3, [r2, #0]
 2002082:	2280      	movs	r2, #128	@ 0x80
 2002084:	0612      	lsls	r2, r2, #24
 2002086:	430a      	orrs	r2, r1
 2002088:	490f      	ldr	r1, [pc, #60]	@ (20020c8 <consoleLoadFont+0x2a4>)
 200208a:	600a      	str	r2, [r1, #0]
 200208c:	680a      	ldr	r2, [r1, #0]
 200208e:	2a00      	cmp	r2, #0
 2002090:	dbfc      	blt.n	200208c <consoleLoadFont+0x268>
 2002092:	e6e0      	b.n	2001e56 <consoleLoadFont+0x32>
 2002094:	05000400 	streq	r0, [r0, #-1024]	@ 0xfffffc00
 2002098:	020196d4 	andeq	r9, r1, #212, 12	@ 0xd400000
 200209c:	fffff000 			@ <UNDEFINED> instruction: 0xfffff000
 20020a0:	00003c0f 	andeq	r3, r0, pc, lsl #24
 20020a4:	00003de0 	andeq	r3, r0, r0, ror #27
 20020a8:	00006318 	andeq	r6, r0, r8, lsl r3
 20020ac:	00003def 	andeq	r3, r0, pc, ror #27
 20020b0:	000003ff 	strdeq	r0, [r0], -pc	@ <UNPREDICTABLE>
 20020b4:	00007c1f 	andeq	r7, r0, pc, lsl ip
 20020b8:	00007fe0 	andeq	r7, r0, r0, ror #31
 20020bc:	00007fff 	strdeq	r7, [r0], -pc	@ <UNPREDICTABLE>
 20020c0:	040000d4 	streq	r0, [r0], #-212	@ 0xffffff2c
 20020c4:	040000d8 	streq	r0, [r0], #-216	@ 0xffffff28
 20020c8:	040000dc 	streq	r0, [r0], #-220	@ 0xffffff24

020020cc <consoleInit>:
 20020cc:	b5f0      	push	{r4, r5, r6, r7, lr}
 20020ce:	464f      	mov	r7, r9
 20020d0:	4646      	mov	r6, r8
 20020d2:	46d6      	mov	lr, sl
 20020d4:	b5c0      	push	{r6, r7, lr}
 20020d6:	b082      	sub	sp, #8
 20020d8:	4699      	mov	r9, r3
 20020da:	ab0c      	add	r3, sp, #48	@ 0x30
 20020dc:	781b      	ldrb	r3, [r3, #0]
 20020de:	4d55      	ldr	r5, [pc, #340]	@ (2002234 <consoleInit+0x168>)
 20020e0:	469a      	mov	sl, r3
 20020e2:	ab0d      	add	r3, sp, #52	@ 0x34
 20020e4:	781f      	ldrb	r7, [r3, #0]
 20020e6:	782b      	ldrb	r3, [r5, #0]
 20020e8:	0006      	movs	r6, r0
 20020ea:	000c      	movs	r4, r1
 20020ec:	4690      	mov	r8, r2
 20020ee:	2b00      	cmp	r3, #0
 20020f0:	d000      	beq.n	20020f4 <consoleInit+0x28>
 20020f2:	e082      	b.n	20021fa <consoleInit+0x12e>
 20020f4:	4d50      	ldr	r5, [pc, #320]	@ (2002238 <consoleInit+0x16c>)
 20020f6:	2e00      	cmp	r6, #0
 20020f8:	d100      	bne.n	20020fc <consoleInit+0x30>
 20020fa:	e098      	b.n	200222e <consoleInit+0x162>
 20020fc:	602e      	str	r6, [r5, #0]
 20020fe:	225c      	movs	r2, #92	@ 0x5c
 2002100:	0030      	movs	r0, r6
 2002102:	494e      	ldr	r1, [pc, #312]	@ (200223c <consoleInit+0x170>)
 2002104:	f011 fa2e 	bl	2013564 <__memcpy_from_thumb>
 2002108:	4653      	mov	r3, sl
 200210a:	2b00      	cmp	r3, #0
 200210c:	d01d      	beq.n	200214a <consoleInit+0x7e>
 200210e:	9b0b      	ldr	r3, [sp, #44]	@ 0x2c
 2002110:	464a      	mov	r2, r9
 2002112:	9300      	str	r3, [sp, #0]
 2002114:	4641      	mov	r1, r8
 2002116:	0020      	movs	r0, r4
 2002118:	9b0a      	ldr	r3, [sp, #40]	@ 0x28
 200211a:	f001 f905 	bl	2003328 <bgInit_call>
 200211e:	4a48      	ldr	r2, [pc, #288]	@ (2002240 <consoleInit+0x174>)
 2002120:	0083      	lsls	r3, r0, #2
 2002122:	5899      	ldr	r1, [r3, r2]
 2002124:	4a47      	ldr	r2, [pc, #284]	@ (2002244 <consoleInit+0x178>)
 2002126:	181b      	adds	r3, r3, r0
 2002128:	00db      	lsls	r3, r3, #3
 200212a:	18d2      	adds	r2, r2, r3
 200212c:	6a13      	ldr	r3, [r2, #32]
 200212e:	6230      	str	r0, [r6, #32]
 2002130:	2b03      	cmp	r3, #3
 2002132:	dc13      	bgt.n	200215c <consoleInit+0x90>
 2002134:	880b      	ldrh	r3, [r1, #0]
 2002136:	069b      	lsls	r3, r3, #26
 2002138:	0f1b      	lsrs	r3, r3, #28
 200213a:	2803      	cmp	r0, #3
 200213c:	dc53      	bgt.n	20021e6 <consoleInit+0x11a>
 200213e:	22c0      	movs	r2, #192	@ 0xc0
 2002140:	0152      	lsls	r2, r2, #5
 2002142:	4694      	mov	ip, r2
 2002144:	4463      	add	r3, ip
 2002146:	039b      	lsls	r3, r3, #14
 2002148:	e043      	b.n	20021d2 <consoleInit+0x106>
 200214a:	9b0b      	ldr	r3, [sp, #44]	@ 0x2c
 200214c:	464a      	mov	r2, r9
 200214e:	9300      	str	r3, [sp, #0]
 2002150:	4641      	mov	r1, r8
 2002152:	0020      	movs	r0, r4
 2002154:	9b0a      	ldr	r3, [sp, #40]	@ 0x28
 2002156:	f001 f93f 	bl	20033d8 <bgInitSub_call>
 200215a:	e7e0      	b.n	200211e <consoleInit+0x52>
 200215c:	880b      	ldrh	r3, [r1, #0]
 200215e:	04db      	lsls	r3, r3, #19
 2002160:	0edb      	lsrs	r3, r3, #27
 2002162:	039b      	lsls	r3, r3, #14
 2002164:	2803      	cmp	r0, #3
 2002166:	dd30      	ble.n	20021ca <consoleInit+0xfe>
 2002168:	22c4      	movs	r2, #196	@ 0xc4
 200216a:	04d2      	lsls	r2, r2, #19
 200216c:	4694      	mov	ip, r2
 200216e:	4463      	add	r3, ip
 2002170:	4a35      	ldr	r2, [pc, #212]	@ (2002248 <consoleInit+0x17c>)
 2002172:	61b3      	str	r3, [r6, #24]
 2002174:	4694      	mov	ip, r2
 2002176:	880b      	ldrh	r3, [r1, #0]
 2002178:	04db      	lsls	r3, r3, #19
 200217a:	0edb      	lsrs	r3, r3, #27
 200217c:	4463      	add	r3, ip
 200217e:	041b      	lsls	r3, r3, #16
 2002180:	095b      	lsrs	r3, r3, #5
 2002182:	6173      	str	r3, [r6, #20]
 2002184:	2201      	movs	r2, #1
 2002186:	2358      	movs	r3, #88	@ 0x58
 2002188:	54f2      	strb	r2, [r6, r3]
 200218a:	2300      	movs	r3, #0
 200218c:	682a      	ldr	r2, [r5, #0]
 200218e:	6c91      	ldr	r1, [r2, #72]	@ 0x48
 2002190:	6293      	str	r3, [r2, #40]	@ 0x28
 2002192:	6253      	str	r3, [r2, #36]	@ 0x24
 2002194:	6c53      	ldr	r3, [r2, #68]	@ 0x44
 2002196:	434b      	muls	r3, r1
 2002198:	2b00      	cmp	r3, #0
 200219a:	dd0a      	ble.n	20021b2 <consoleInit+0xe6>
 200219c:	2400      	movs	r4, #0
 200219e:	2020      	movs	r0, #32
 20021a0:	f7ff fc40 	bl	2001a24 <consolePrintChar>
 20021a4:	682a      	ldr	r2, [r5, #0]
 20021a6:	3401      	adds	r4, #1
 20021a8:	6c91      	ldr	r1, [r2, #72]	@ 0x48
 20021aa:	6c53      	ldr	r3, [r2, #68]	@ 0x44
 20021ac:	434b      	muls	r3, r1
 20021ae:	42a3      	cmp	r3, r4
 20021b0:	dcf5      	bgt.n	200219e <consoleInit+0xd2>
 20021b2:	2300      	movs	r3, #0
 20021b4:	6293      	str	r3, [r2, #40]	@ 0x28
 20021b6:	6253      	str	r3, [r2, #36]	@ 0x24
 20021b8:	2f00      	cmp	r7, #0
 20021ba:	d11a      	bne.n	20021f2 <consoleInit+0x126>
 20021bc:	6828      	ldr	r0, [r5, #0]
 20021be:	b002      	add	sp, #8
 20021c0:	bce0      	pop	{r5, r6, r7}
 20021c2:	46ba      	mov	sl, r7
 20021c4:	46b1      	mov	r9, r6
 20021c6:	46a8      	mov	r8, r5
 20021c8:	bdf0      	pop	{r4, r5, r6, r7, pc}
 20021ca:	22c0      	movs	r2, #192	@ 0xc0
 20021cc:	04d2      	lsls	r2, r2, #19
 20021ce:	4694      	mov	ip, r2
 20021d0:	4463      	add	r3, ip
 20021d2:	4a1e      	ldr	r2, [pc, #120]	@ (200224c <consoleInit+0x180>)
 20021d4:	61b3      	str	r3, [r6, #24]
 20021d6:	4694      	mov	ip, r2
 20021d8:	880b      	ldrh	r3, [r1, #0]
 20021da:	04db      	lsls	r3, r3, #19
 20021dc:	0edb      	lsrs	r3, r3, #27
 20021de:	4463      	add	r3, ip
 20021e0:	041b      	lsls	r3, r3, #16
 20021e2:	095b      	lsrs	r3, r3, #5
 20021e4:	e7cd      	b.n	2002182 <consoleInit+0xb6>
 20021e6:	22c4      	movs	r2, #196	@ 0xc4
 20021e8:	0152      	lsls	r2, r2, #5
 20021ea:	4694      	mov	ip, r2
 20021ec:	4463      	add	r3, ip
 20021ee:	039b      	lsls	r3, r3, #14
 20021f0:	e7be      	b.n	2002170 <consoleInit+0xa4>
 20021f2:	0030      	movs	r0, r6
 20021f4:	f7ff fe16 	bl	2001e24 <consoleLoadFont>
 20021f8:	e7e0      	b.n	20021bc <consoleInit+0xf0>
 20021fa:	4b15      	ldr	r3, [pc, #84]	@ (2002250 <consoleInit+0x184>)
 20021fc:	4a15      	ldr	r2, [pc, #84]	@ (2002254 <consoleInit+0x188>)
 20021fe:	605a      	str	r2, [r3, #4]
 2002200:	609a      	str	r2, [r3, #8]
 2002202:	f011 f999 	bl	2013538 <____getreent_from_thumb>
 2002206:	2300      	movs	r3, #0
 2002208:	2202      	movs	r2, #2
 200220a:	2100      	movs	r1, #0
 200220c:	6880      	ldr	r0, [r0, #8]
 200220e:	f011 f99b 	bl	2013548 <__setvbuf_from_thumb>
 2002212:	f011 f991 	bl	2013538 <____getreent_from_thumb>
 2002216:	2300      	movs	r3, #0
 2002218:	2202      	movs	r2, #2
 200221a:	2100      	movs	r1, #0
 200221c:	68c0      	ldr	r0, [r0, #12]
 200221e:	f011 f993 	bl	2013548 <__setvbuf_from_thumb>
 2002222:	2300      	movs	r3, #0
 2002224:	702b      	strb	r3, [r5, #0]
 2002226:	4d04      	ldr	r5, [pc, #16]	@ (2002238 <consoleInit+0x16c>)
 2002228:	2e00      	cmp	r6, #0
 200222a:	d000      	beq.n	200222e <consoleInit+0x162>
 200222c:	e766      	b.n	20020fc <consoleInit+0x30>
 200222e:	682e      	ldr	r6, [r5, #0]
 2002230:	e765      	b.n	20020fe <consoleInit+0x32>
 2002232:	46c0      	nop			@ (mov r8, r8)
 2002234:	020196d0 	andeq	r9, r1, #208, 12	@ 0xd000000
 2002238:	020196d4 	andeq	r9, r1, #212, 12	@ 0xd400000
 200223c:	020196d8 	andeq	r9, r1, #216, 12	@ 0xd800000
 2002240:	02019784 	andeq	r9, r1, #132, 14	@ 0x2100000
 2002244:	0201b9d4 	andeq	fp, r1, #212, 18	@ 0x350000
 2002248:	ffffc400 			@ <UNDEFINED> instruction: 0xffffc400
 200224c:	ffffc000 			@ <UNDEFINED> instruction: 0xffffc000
 2002250:	0201ae7c 	andeq	sl, r1, #124, 28	@ 0x7c0
 2002254:	020137e8 	andeq	r3, r1, #232, 14	@ 0x3a00000

02002258 <consoleDemoInit>:
 2002258:	2380      	movs	r3, #128	@ 0x80
 200225a:	2184      	movs	r1, #132	@ 0x84
 200225c:	2001      	movs	r0, #1
 200225e:	b500      	push	{lr}
 2002260:	4a0a      	ldr	r2, [pc, #40]	@ (200228c <consoleDemoInit+0x34>)
 2002262:	025b      	lsls	r3, r3, #9
 2002264:	b085      	sub	sp, #20
 2002266:	6013      	str	r3, [r2, #0]
 2002268:	4a09      	ldr	r2, [pc, #36]	@ (2002290 <consoleDemoInit+0x38>)
 200226a:	7011      	strb	r1, [r2, #0]
 200226c:	4a09      	ldr	r2, [pc, #36]	@ (2002294 <consoleDemoInit+0x3c>)
 200226e:	7f91      	ldrb	r1, [r2, #30]
 2002270:	9003      	str	r0, [sp, #12]
 2002272:	2000      	movs	r0, #0
 2002274:	9002      	str	r0, [sp, #8]
 2002276:	7f50      	ldrb	r0, [r2, #29]
 2002278:	9001      	str	r0, [sp, #4]
 200227a:	7f12      	ldrb	r2, [r2, #28]
 200227c:	2000      	movs	r0, #0
 200227e:	9200      	str	r2, [sp, #0]
 2002280:	2201      	movs	r2, #1
 2002282:	f7ff ff23 	bl	20020cc <consoleInit>
 2002286:	b005      	add	sp, #20
 2002288:	bd00      	pop	{pc}
 200228a:	46c0      	nop			@ (mov r8, r8)
 200228c:	04001000 	streq	r1, [r0], #-0
 2002290:	04000242 	streq	r0, [r0], #-578	@ 0xfffffdbe
 2002294:	020196d8 	andeq	r9, r1, #216, 12	@ 0xd800000

02002298 <__syscall_exit>:
 2002298:	b510      	push	{r4, lr}
 200229a:	f011 f95f 	bl	201355c <____libnds_exit_from_thumb>
 200229e:	bd10      	pop	{r4, pc}

020022a0 <initSystem>:
 20022a0:	2300      	movs	r3, #0
 20022a2:	4a3b      	ldr	r2, [pc, #236]	@ (2002390 <initSystem+0xf0>)
 20022a4:	b510      	push	{r4, lr}
 20022a6:	6013      	str	r3, [r2, #0]
 20022a8:	4a3a      	ldr	r2, [pc, #232]	@ (2002394 <initSystem+0xf4>)
 20022aa:	483b      	ldr	r0, [pc, #236]	@ (2002398 <initSystem+0xf8>)
 20022ac:	6013      	str	r3, [r2, #0]
 20022ae:	4a3b      	ldr	r2, [pc, #236]	@ (200239c <initSystem+0xfc>)
 20022b0:	493b      	ldr	r1, [pc, #236]	@ (20023a0 <initSystem+0x100>)
 20022b2:	6013      	str	r3, [r2, #0]
 20022b4:	4a3b      	ldr	r2, [pc, #236]	@ (20023a4 <initSystem+0x104>)
 20022b6:	4c3c      	ldr	r4, [pc, #240]	@ (20023a8 <initSystem+0x108>)
 20022b8:	8013      	strh	r3, [r2, #0]
 20022ba:	4a3c      	ldr	r2, [pc, #240]	@ (20023ac <initSystem+0x10c>)
 20022bc:	8013      	strh	r3, [r2, #0]
 20022be:	4a3c      	ldr	r2, [pc, #240]	@ (20023b0 <initSystem+0x110>)
 20022c0:	6013      	str	r3, [r2, #0]
 20022c2:	4a3c      	ldr	r2, [pc, #240]	@ (20023b4 <initSystem+0x114>)
 20022c4:	6013      	str	r3, [r2, #0]
 20022c6:	4a3c      	ldr	r2, [pc, #240]	@ (20023b8 <initSystem+0x118>)
 20022c8:	6013      	str	r3, [r2, #0]
 20022ca:	4a3c      	ldr	r2, [pc, #240]	@ (20023bc <initSystem+0x11c>)
 20022cc:	8013      	strh	r3, [r2, #0]
 20022ce:	4a3c      	ldr	r2, [pc, #240]	@ (20023c0 <initSystem+0x120>)
 20022d0:	8013      	strh	r3, [r2, #0]
 20022d2:	4a3c      	ldr	r2, [pc, #240]	@ (20023c4 <initSystem+0x124>)
 20022d4:	6013      	str	r3, [r2, #0]
 20022d6:	4a3c      	ldr	r2, [pc, #240]	@ (20023c8 <initSystem+0x128>)
 20022d8:	6013      	str	r3, [r2, #0]
 20022da:	4a3c      	ldr	r2, [pc, #240]	@ (20023cc <initSystem+0x12c>)
 20022dc:	6013      	str	r3, [r2, #0]
 20022de:	4a3c      	ldr	r2, [pc, #240]	@ (20023d0 <initSystem+0x130>)
 20022e0:	8013      	strh	r3, [r2, #0]
 20022e2:	4a3c      	ldr	r2, [pc, #240]	@ (20023d4 <initSystem+0x134>)
 20022e4:	8013      	strh	r3, [r2, #0]
 20022e6:	4a3c      	ldr	r2, [pc, #240]	@ (20023d8 <initSystem+0x138>)
 20022e8:	6013      	str	r3, [r2, #0]
 20022ea:	6003      	str	r3, [r0, #0]
 20022ec:	600b      	str	r3, [r1, #0]
 20022ee:	8023      	strh	r3, [r4, #0]
 20022f0:	4c3a      	ldr	r4, [pc, #232]	@ (20023dc <initSystem+0x13c>)
 20022f2:	8023      	strh	r3, [r4, #0]
 20022f4:	4c3a      	ldr	r4, [pc, #232]	@ (20023e0 <initSystem+0x140>)
 20022f6:	6023      	str	r3, [r4, #0]
 20022f8:	2380      	movs	r3, #128	@ 0x80
 20022fa:	04db      	lsls	r3, r3, #19
 20022fc:	6004      	str	r4, [r0, #0]
 20022fe:	600b      	str	r3, [r1, #0]
 2002300:	4b38      	ldr	r3, [pc, #224]	@ (20023e4 <initSystem+0x144>)
 2002302:	6013      	str	r3, [r2, #0]
 2002304:	6813      	ldr	r3, [r2, #0]
 2002306:	2b00      	cmp	r3, #0
 2002308:	dbfc      	blt.n	2002304 <initSystem+0x64>
 200230a:	2100      	movs	r1, #0
 200230c:	4b34      	ldr	r3, [pc, #208]	@ (20023e0 <initSystem+0x140>)
 200230e:	6019      	str	r1, [r3, #0]
 2002310:	4921      	ldr	r1, [pc, #132]	@ (2002398 <initSystem+0xf8>)
 2002312:	600b      	str	r3, [r1, #0]
 2002314:	4b22      	ldr	r3, [pc, #136]	@ (20023a0 <initSystem+0x100>)
 2002316:	4934      	ldr	r1, [pc, #208]	@ (20023e8 <initSystem+0x148>)
 2002318:	6019      	str	r1, [r3, #0]
 200231a:	4b32      	ldr	r3, [pc, #200]	@ (20023e4 <initSystem+0x144>)
 200231c:	6013      	str	r3, [r2, #0]
 200231e:	4a2e      	ldr	r2, [pc, #184]	@ (20023d8 <initSystem+0x138>)
 2002320:	6813      	ldr	r3, [r2, #0]
 2002322:	2b00      	cmp	r3, #0
 2002324:	dbfc      	blt.n	2002320 <initSystem+0x80>
 2002326:	2400      	movs	r4, #0
 2002328:	4b30      	ldr	r3, [pc, #192]	@ (20023ec <initSystem+0x14c>)
 200232a:	601c      	str	r4, [r3, #0]
 200232c:	f001 f978 	bl	2003620 <vramDefault>
 2002330:	4b2f      	ldr	r3, [pc, #188]	@ (20023f0 <initSystem+0x150>)
 2002332:	701c      	strb	r4, [r3, #0]
 2002334:	4b2f      	ldr	r3, [pc, #188]	@ (20023f4 <initSystem+0x154>)
 2002336:	701c      	strb	r4, [r3, #0]
 2002338:	4b2f      	ldr	r3, [pc, #188]	@ (20023f8 <initSystem+0x158>)
 200233a:	701c      	strb	r4, [r3, #0]
 200233c:	4b2f      	ldr	r3, [pc, #188]	@ (20023fc <initSystem+0x15c>)
 200233e:	701c      	strb	r4, [r3, #0]
 2002340:	4b2f      	ldr	r3, [pc, #188]	@ (2002400 <initSystem+0x160>)
 2002342:	701c      	strb	r4, [r3, #0]
 2002344:	4b2f      	ldr	r3, [pc, #188]	@ (2002404 <initSystem+0x164>)
 2002346:	781b      	ldrb	r3, [r3, #0]
 2002348:	2b00      	cmp	r3, #0
 200234a:	d11d      	bne.n	2002388 <initSystem+0xe8>
 200234c:	f000 fd6c 	bl	2002e28 <irqInit>
 2002350:	f000 fca2 	bl	2002c98 <fifoInit>
 2002354:	2200      	movs	r2, #0
 2002356:	492c      	ldr	r1, [pc, #176]	@ (2002408 <initSystem+0x168>)
 2002358:	2002      	movs	r0, #2
 200235a:	f000 f97d 	bl	2002658 <fifoSetValue32Handler>
 200235e:	2200      	movs	r2, #0
 2002360:	492a      	ldr	r1, [pc, #168]	@ (200240c <initSystem+0x16c>)
 2002362:	2002      	movs	r0, #2
 2002364:	f000 fc4a 	bl	2002bfc <fifoSetDatamsgHandler>
 2002368:	2301      	movs	r3, #1
 200236a:	4c29      	ldr	r4, [pc, #164]	@ (2002410 <initSystem+0x170>)
 200236c:	425b      	negs	r3, r3
 200236e:	81a3      	strh	r3, [r4, #12]
 2002370:	4828      	ldr	r0, [pc, #160]	@ (2002414 <initSystem+0x174>)
 2002372:	f011 f8c7 	bl	2013504 <__memUncached_from_thumb>
 2002376:	4b28      	ldr	r3, [pc, #160]	@ (2002418 <initSystem+0x178>)
 2002378:	6018      	str	r0, [r3, #0]
 200237a:	4b28      	ldr	r3, [pc, #160]	@ (200241c <initSystem+0x17c>)
 200237c:	2001      	movs	r0, #1
 200237e:	681b      	ldr	r3, [r3, #0]
 2002380:	61a3      	str	r3, [r4, #24]
 2002382:	f000 fd79 	bl	2002e78 <irqEnable>
 2002386:	bd10      	pop	{r4, pc}
 2002388:	2001      	movs	r0, #1
 200238a:	f011 f8c3 	bl	2013514 <__setCpuClock_from_thumb>
 200238e:	e7dd      	b.n	200234c <initSystem+0xac>
 2002390:	040000b8 	streq	r0, [r0], #-184	@ 0xffffff48
 2002394:	040000b0 	streq	r0, [r0], #-176	@ 0xffffff50
 2002398:	040000d4 	streq	r0, [r0], #-212	@ 0xffffff2c
 200239c:	040000b4 	streq	r0, [r0], #-180	@ 0xffffff4c
 20023a0:	040000d8 	streq	r0, [r0], #-216	@ 0xffffff28
 20023a4:	04000102 	streq	r0, [r0], #-258	@ 0xfffffefe
 20023a8:	0400010e 	streq	r0, [r0], #-270	@ 0xfffffef2
 20023ac:	04000100 	streq	r0, [r0], #-256	@ 0xffffff00
 20023b0:	040000c4 	streq	r0, [r0], #-196	@ 0xffffff3c
 20023b4:	040000bc 	streq	r0, [r0], #-188	@ 0xffffff44
 20023b8:	040000c0 	streq	r0, [r0], #-192	@ 0xffffff40
 20023bc:	04000106 	streq	r0, [r0], #-262	@ 0xfffffefa
 20023c0:	04000104 	streq	r0, [r0], #-260	@ 0xfffffefc
 20023c4:	040000d0 	streq	r0, [r0], #-208	@ 0xffffff30
 20023c8:	040000c8 	streq	r0, [r0], #-200	@ 0xffffff38
 20023cc:	040000cc 	streq	r0, [r0], #-204	@ 0xffffff34
 20023d0:	0400010a 	streq	r0, [r0], #-266	@ 0xfffffef6
 20023d4:	04000108 	streq	r0, [r0], #-264	@ 0xfffffef8
 20023d8:	040000dc 	streq	r0, [r0], #-220	@ 0xffffff24
 20023dc:	0400010c 	streq	r0, [r0], #-268	@ 0xfffffef4
 20023e0:	040000ec 	streq	r0, [r0], #-236	@ 0xffffff14
 20023e4:	85000015 	strhi	r0, [r0, #-21]	@ 0xffffffeb
 20023e8:	04001008 	streq	r1, [r0], #-8
 20023ec:	04001000 	streq	r1, [r0], #-0
 20023f0:	04000244 	streq	r0, [r0], #-580	@ 0xfffffdbc
 20023f4:	04000245 	streq	r0, [r0], #-581	@ 0xfffffdbb
 20023f8:	04000246 	streq	r0, [r0], #-582	@ 0xfffffdba
 20023fc:	04000248 	streq	r0, [r0], #-584	@ 0xfffffdb8
 2002400:	04000249 	streq	r0, [r0], #-585	@ 0xfffffdb7
 2002404:	0201af84 	andeq	sl, r1, #132, 30	@ 0x210
 2002408:	02003491 	andeq	r3, r0, #-1862270976	@ 0x91000000
 200240c:	020034d9 	andeq	r3, r0, #-654311424	@ 0xd9000000
 2002410:	02fff000 	rscseq	pc, pc, #0
 2002414:	02fff010 	rscseq	pc, pc, #16
 2002418:	0201af80 	andeq	sl, r1, #128, 30	@ 0x200
 200241c:	0201bcdc 	andeq	fp, r1, #220, 24	@ 0xdc00

02002420 <fifo_queueBlock>:
 2002420:	b570      	push	{r4, r5, r6, lr}
 2002422:	4c0d      	ldr	r4, [pc, #52]	@ (2002458 <fifo_queueBlock+0x38>)
 2002424:	00d6      	lsls	r6, r2, #3
 2002426:	5933      	ldr	r3, [r6, r4]
 2002428:	4d0c      	ldr	r5, [pc, #48]	@ (200245c <fifo_queueBlock+0x3c>)
 200242a:	0412      	lsls	r2, r2, #16
 200242c:	432b      	orrs	r3, r5
 200242e:	5133      	str	r3, [r6, r4]
 2002430:	8803      	ldrh	r3, [r0, #0]
 2002432:	0c12      	lsrs	r2, r2, #16
 2002434:	42ab      	cmp	r3, r5
 2002436:	d00a      	beq.n	200244e <fifo_queueBlock+0x2e>
 2002438:	8843      	ldrh	r3, [r0, #2]
 200243a:	00db      	lsls	r3, r3, #3
 200243c:	591b      	ldr	r3, [r3, r4]
 200243e:	8845      	ldrh	r5, [r0, #2]
 2002440:	0c1b      	lsrs	r3, r3, #16
 2002442:	041b      	lsls	r3, r3, #16
 2002444:	430b      	orrs	r3, r1
 2002446:	00ed      	lsls	r5, r5, #3
 2002448:	512b      	str	r3, [r5, r4]
 200244a:	8042      	strh	r2, [r0, #2]
 200244c:	bd70      	pop	{r4, r5, r6, pc}
 200244e:	0409      	lsls	r1, r1, #16
 2002450:	0c09      	lsrs	r1, r1, #16
 2002452:	8001      	strh	r1, [r0, #0]
 2002454:	8042      	strh	r2, [r0, #2]
 2002456:	e7f9      	b.n	200244c <fifo_queueBlock+0x2c>
 2002458:	0201b1cc 	andeq	fp, r1, #204, 2	@ 0x33
 200245c:	0000ffff 	strdeq	pc, [r0], -pc	@ <UNPREDICTABLE>

02002460 <fifo_waitBlock>:
 2002460:	b5f8      	push	{r3, r4, r5, r6, r7, lr}
 2002462:	46ce      	mov	lr, r9
 2002464:	4647      	mov	r7, r8
 2002466:	4b17      	ldr	r3, [pc, #92]	@ (20024c4 <fifo_waitBlock+0x64>)
 2002468:	b580      	push	{r7, lr}
 200246a:	4698      	mov	r8, r3
 200246c:	4b16      	ldr	r3, [pc, #88]	@ (20024c8 <fifo_waitBlock+0x68>)
 200246e:	4c17      	ldr	r4, [pc, #92]	@ (20024cc <fifo_waitBlock+0x6c>)
 2002470:	4699      	mov	r9, r3
 2002472:	4d17      	ldr	r5, [pc, #92]	@ (20024d0 <fifo_waitBlock+0x70>)
 2002474:	4e17      	ldr	r6, [pc, #92]	@ (20024d4 <fifo_waitBlock+0x74>)
 2002476:	6823      	ldr	r3, [r4, #0]
 2002478:	2b00      	cmp	r3, #0
 200247a:	d012      	beq.n	20024a2 <fifo_waitBlock+0x42>
 200247c:	4642      	mov	r2, r8
 200247e:	8828      	ldrh	r0, [r5, #0]
 2002480:	882b      	ldrh	r3, [r5, #0]
 2002482:	00db      	lsls	r3, r3, #3
 2002484:	58d3      	ldr	r3, [r2, r3]
 2002486:	041b      	lsls	r3, r3, #16
 2002488:	0c1b      	lsrs	r3, r3, #16
 200248a:	802b      	strh	r3, [r5, #0]
 200248c:	00c3      	lsls	r3, r0, #3
 200248e:	50d6      	str	r6, [r2, r3]
 2002490:	6823      	ldr	r3, [r4, #0]
 2002492:	3b01      	subs	r3, #1
 2002494:	6023      	str	r3, [r4, #0]
 2002496:	42b0      	cmp	r0, r6
 2002498:	d003      	beq.n	20024a2 <fifo_waitBlock+0x42>
 200249a:	bcc0      	pop	{r6, r7}
 200249c:	46b9      	mov	r9, r7
 200249e:	46b0      	mov	r8, r6
 20024a0:	bdf8      	pop	{r3, r4, r5, r6, r7, pc}
 20024a2:	464b      	mov	r3, r9
 20024a4:	2204      	movs	r2, #4
 20024a6:	881b      	ldrh	r3, [r3, #0]
 20024a8:	2180      	movs	r1, #128	@ 0x80
 20024aa:	4313      	orrs	r3, r2
 20024ac:	464a      	mov	r2, r9
 20024ae:	8013      	strh	r3, [r2, #0]
 20024b0:	2301      	movs	r3, #1
 20024b2:	4f09      	ldr	r7, [pc, #36]	@ (20024d8 <fifo_waitBlock+0x78>)
 20024b4:	2000      	movs	r0, #0
 20024b6:	603b      	str	r3, [r7, #0]
 20024b8:	0289      	lsls	r1, r1, #10
 20024ba:	f011 f81f 	bl	20134fc <__swiIntrWait_from_thumb>
 20024be:	2300      	movs	r3, #0
 20024c0:	603b      	str	r3, [r7, #0]
 20024c2:	e7d8      	b.n	2002476 <fifo_waitBlock+0x16>
 20024c4:	0201b1cc 	andeq	fp, r1, #204, 2	@ 0x33
 20024c8:	04000184 	streq	r0, [r0], #-388	@ 0xfffffe7c
 20024cc:	02019734 	andeq	r9, r1, #52, 14	@ 0xd00000
 20024d0:	02019740 	andeq	r9, r1, #64, 14	@ 0x1000000
 20024d4:	0000ffff 	strdeq	pc, [r0], -pc	@ <UNPREDICTABLE>
 20024d8:	04000208 	streq	r0, [r0], #-520	@ 0xfffffdf8

020024dc <fifoInternalSend.part.0>:
 20024dc:	b5f8      	push	{r3, r4, r5, r6, r7, lr}
 20024de:	4b2d      	ldr	r3, [pc, #180]	@ (2002594 <fifoInternalSend.part.0+0xb8>)
 20024e0:	4647      	mov	r7, r8
 20024e2:	4690      	mov	r8, r2
 20024e4:	681a      	ldr	r2, [r3, #0]
 20024e6:	46ce      	mov	lr, r9
 20024e8:	4691      	mov	r9, r2
 20024ea:	2200      	movs	r2, #0
 20024ec:	b580      	push	{r7, lr}
 20024ee:	601a      	str	r2, [r3, #0]
 20024f0:	000f      	movs	r7, r1
 20024f2:	0005      	movs	r5, r0
 20024f4:	f7ff ffb4 	bl	2002460 <fifo_waitBlock>
 20024f8:	0003      	movs	r3, r0
 20024fa:	4c27      	ldr	r4, [pc, #156]	@ (2002598 <fifoInternalSend.part.0+0xbc>)
 20024fc:	4a27      	ldr	r2, [pc, #156]	@ (200259c <fifoInternalSend.part.0+0xc0>)
 20024fe:	8820      	ldrh	r0, [r4, #0]
 2002500:	0419      	lsls	r1, r3, #16
 2002502:	0c09      	lsrs	r1, r1, #16
 2002504:	4290      	cmp	r0, r2
 2002506:	d041      	beq.n	200258c <fifoInternalSend.part.0+0xb0>
 2002508:	8862      	ldrh	r2, [r4, #2]
 200250a:	4e25      	ldr	r6, [pc, #148]	@ (20025a0 <fifoInternalSend.part.0+0xc4>)
 200250c:	00d2      	lsls	r2, r2, #3
 200250e:	58b2      	ldr	r2, [r6, r2]
 2002510:	8860      	ldrh	r0, [r4, #2]
 2002512:	0c12      	lsrs	r2, r2, #16
 2002514:	0412      	lsls	r2, r2, #16
 2002516:	431a      	orrs	r2, r3
 2002518:	00c0      	lsls	r0, r0, #3
 200251a:	5032      	str	r2, [r6, r0]
 200251c:	00db      	lsls	r3, r3, #3
 200251e:	3304      	adds	r3, #4
 2002520:	50f5      	str	r5, [r6, r3]
 2002522:	8061      	strh	r1, [r4, #2]
 2002524:	2f00      	cmp	r7, #0
 2002526:	d024      	beq.n	2002572 <fifoInternalSend.part.0+0x96>
 2002528:	4645      	mov	r5, r8
 200252a:	4b1c      	ldr	r3, [pc, #112]	@ (200259c <fifoInternalSend.part.0+0xc0>)
 200252c:	00bf      	lsls	r7, r7, #2
 200252e:	4698      	mov	r8, r3
 2002530:	19ef      	adds	r7, r5, r7
 2002532:	e00f      	b.n	2002554 <fifoInternalSend.part.0+0x78>
 2002534:	8863      	ldrh	r3, [r4, #2]
 2002536:	00db      	lsls	r3, r3, #3
 2002538:	58f3      	ldr	r3, [r6, r3]
 200253a:	8861      	ldrh	r1, [r4, #2]
 200253c:	0c1b      	lsrs	r3, r3, #16
 200253e:	041b      	lsls	r3, r3, #16
 2002540:	4303      	orrs	r3, r0
 2002542:	00c9      	lsls	r1, r1, #3
 2002544:	5073      	str	r3, [r6, r1]
 2002546:	cd08      	ldmia	r5!, {r3}
 2002548:	00c0      	lsls	r0, r0, #3
 200254a:	3004      	adds	r0, #4
 200254c:	5033      	str	r3, [r6, r0]
 200254e:	8062      	strh	r2, [r4, #2]
 2002550:	42af      	cmp	r7, r5
 2002552:	d00e      	beq.n	2002572 <fifoInternalSend.part.0+0x96>
 2002554:	f7ff ff84 	bl	2002460 <fifo_waitBlock>
 2002558:	8823      	ldrh	r3, [r4, #0]
 200255a:	0402      	lsls	r2, r0, #16
 200255c:	0c12      	lsrs	r2, r2, #16
 200255e:	4543      	cmp	r3, r8
 2002560:	d1e8      	bne.n	2002534 <fifoInternalSend.part.0+0x58>
 2002562:	cd08      	ldmia	r5!, {r3}
 2002564:	00c0      	lsls	r0, r0, #3
 2002566:	3004      	adds	r0, #4
 2002568:	8022      	strh	r2, [r4, #0]
 200256a:	5033      	str	r3, [r6, r0]
 200256c:	8062      	strh	r2, [r4, #2]
 200256e:	42af      	cmp	r7, r5
 2002570:	d1f0      	bne.n	2002554 <fifoInternalSend.part.0+0x78>
 2002572:	2104      	movs	r1, #4
 2002574:	4a0b      	ldr	r2, [pc, #44]	@ (20025a4 <fifoInternalSend.part.0+0xc8>)
 2002576:	2001      	movs	r0, #1
 2002578:	8813      	ldrh	r3, [r2, #0]
 200257a:	430b      	orrs	r3, r1
 200257c:	8013      	strh	r3, [r2, #0]
 200257e:	464a      	mov	r2, r9
 2002580:	4b04      	ldr	r3, [pc, #16]	@ (2002594 <fifoInternalSend.part.0+0xb8>)
 2002582:	601a      	str	r2, [r3, #0]
 2002584:	bcc0      	pop	{r6, r7}
 2002586:	46b9      	mov	r9, r7
 2002588:	46b0      	mov	r8, r6
 200258a:	bdf8      	pop	{r3, r4, r5, r6, r7, pc}
 200258c:	4e04      	ldr	r6, [pc, #16]	@ (20025a0 <fifoInternalSend.part.0+0xc4>)
 200258e:	8021      	strh	r1, [r4, #0]
 2002590:	e7c4      	b.n	200251c <fifoInternalSend.part.0+0x40>
 2002592:	46c0      	nop			@ (mov r8, r8)
 2002594:	04000208 	streq	r0, [r0], #-520	@ 0xfffffdf8
 2002598:	0201973c 	andeq	r9, r1, #60, 14	@ 0xf00000
 200259c:	0000ffff 	strdeq	pc, [r0], -pc	@ <UNPREDICTABLE>
 20025a0:	0201b1cc 	andeq	fp, r1, #204, 2	@ 0x33
 20025a4:	04000184 	streq	r0, [r0], #-388	@ 0xfffffe7c

020025a8 <fifoInternalSendInterrupt>:
 20025a8:	b5f0      	push	{r4, r5, r6, r7, lr}
 20025aa:	46de      	mov	lr, fp
 20025ac:	4657      	mov	r7, sl
 20025ae:	464e      	mov	r6, r9
 20025b0:	4645      	mov	r5, r8
 20025b2:	b5e0      	push	{r5, r6, r7, lr}
 20025b4:	4821      	ldr	r0, [pc, #132]	@ (200263c <fifoInternalSendInterrupt+0x94>)
 20025b6:	4a22      	ldr	r2, [pc, #136]	@ (2002640 <fifoInternalSendInterrupt+0x98>)
 20025b8:	8803      	ldrh	r3, [r0, #0]
 20025ba:	4694      	mov	ip, r2
 20025bc:	b083      	sub	sp, #12
 20025be:	4293      	cmp	r3, r2
 20025c0:	d032      	beq.n	2002628 <fifoInternalSendInterrupt+0x80>
 20025c2:	4b20      	ldr	r3, [pc, #128]	@ (2002644 <fifoInternalSendInterrupt+0x9c>)
 20025c4:	4e20      	ldr	r6, [pc, #128]	@ (2002648 <fifoInternalSendInterrupt+0xa0>)
 20025c6:	4699      	mov	r9, r3
 20025c8:	2302      	movs	r3, #2
 20025ca:	4698      	mov	r8, r3
 20025cc:	4b1f      	ldr	r3, [pc, #124]	@ (200264c <fifoInternalSendInterrupt+0xa4>)
 20025ce:	46e2      	mov	sl, ip
 20025d0:	469b      	mov	fp, r3
 20025d2:	8802      	ldrh	r2, [r0, #0]
 20025d4:	491e      	ldr	r1, [pc, #120]	@ (2002650 <fifoInternalSendInterrupt+0xa8>)
 20025d6:	4f1f      	ldr	r7, [pc, #124]	@ (2002654 <fifoInternalSendInterrupt+0xac>)
 20025d8:	9001      	str	r0, [sp, #4]
 20025da:	9600      	str	r6, [sp, #0]
 20025dc:	e015      	b.n	200260a <fifoInternalSendInterrupt+0x62>
 20025de:	00d4      	lsls	r4, r2, #3
 20025e0:	0020      	movs	r0, r4
 20025e2:	465e      	mov	r6, fp
 20025e4:	3004      	adds	r0, #4
 20025e6:	5863      	ldr	r3, [r4, r1]
 20025e8:	5840      	ldr	r0, [r0, r1]
 20025ea:	041b      	lsls	r3, r3, #16
 20025ec:	6030      	str	r0, [r6, #0]
 20025ee:	4660      	mov	r0, ip
 20025f0:	5060      	str	r0, [r4, r1]
 20025f2:	8878      	ldrh	r0, [r7, #2]
 20025f4:	0c1b      	lsrs	r3, r3, #16
 20025f6:	00c0      	lsls	r0, r0, #3
 20025f8:	5042      	str	r2, [r0, r1]
 20025fa:	9800      	ldr	r0, [sp, #0]
 20025fc:	807d      	strh	r5, [r7, #2]
 20025fe:	6802      	ldr	r2, [r0, #0]
 2002600:	3201      	adds	r2, #1
 2002602:	6002      	str	r2, [r0, #0]
 2002604:	4553      	cmp	r3, sl
 2002606:	d015      	beq.n	2002634 <fifoInternalSendInterrupt+0x8c>
 2002608:	001a      	movs	r2, r3
 200260a:	464b      	mov	r3, r9
 200260c:	4640      	mov	r0, r8
 200260e:	881b      	ldrh	r3, [r3, #0]
 2002610:	0015      	movs	r5, r2
 2002612:	4218      	tst	r0, r3
 2002614:	d0e3      	beq.n	20025de <fifoInternalSendInterrupt+0x36>
 2002616:	9801      	ldr	r0, [sp, #4]
 2002618:	8005      	strh	r5, [r0, #0]
 200261a:	b003      	add	sp, #12
 200261c:	bcf0      	pop	{r4, r5, r6, r7}
 200261e:	46bb      	mov	fp, r7
 2002620:	46b2      	mov	sl, r6
 2002622:	46a9      	mov	r9, r5
 2002624:	46a0      	mov	r8, r4
 2002626:	bdf0      	pop	{r4, r5, r6, r7, pc}
 2002628:	2104      	movs	r1, #4
 200262a:	4a06      	ldr	r2, [pc, #24]	@ (2002644 <fifoInternalSendInterrupt+0x9c>)
 200262c:	8813      	ldrh	r3, [r2, #0]
 200262e:	438b      	bics	r3, r1
 2002630:	8013      	strh	r3, [r2, #0]
 2002632:	e7f2      	b.n	200261a <fifoInternalSendInterrupt+0x72>
 2002634:	4665      	mov	r5, ip
 2002636:	9801      	ldr	r0, [sp, #4]
 2002638:	e7ee      	b.n	2002618 <fifoInternalSendInterrupt+0x70>
 200263a:	46c0      	nop			@ (mov r8, r8)
 200263c:	0201973c 	andeq	r9, r1, #60, 14	@ 0xf00000
 2002640:	0000ffff 	strdeq	pc, [r0], -pc	@ <UNPREDICTABLE>
 2002644:	04000184 	streq	r0, [r0], #-388	@ 0xfffffe7c
 2002648:	02019734 	andeq	r9, r1, #52, 14	@ 0xd00000
 200264c:	04000188 	streq	r0, [r0], #-392	@ 0xfffffe78
 2002650:	0201b1cc 	andeq	fp, r1, #204, 2	@ 0x33
 2002654:	02019740 	andeq	r9, r1, #64, 14	@ 0x1000000

02002658 <fifoSetValue32Handler>:
 2002658:	b5f0      	push	{r4, r5, r6, r7, lr}
 200265a:	46de      	mov	lr, fp
 200265c:	4657      	mov	r7, sl
 200265e:	464e      	mov	r6, r9
 2002660:	4645      	mov	r5, r8
 2002662:	b5e0      	push	{r5, r6, r7, lr}
 2002664:	468a      	mov	sl, r1
 2002666:	4693      	mov	fp, r2
 2002668:	b083      	sub	sp, #12
 200266a:	280f      	cmp	r0, #15
 200266c:	d84b      	bhi.n	2002706 <fifoSetValue32Handler+0xae>
 200266e:	2200      	movs	r2, #0
 2002670:	4b26      	ldr	r3, [pc, #152]	@ (200270c <fifoSetValue32Handler+0xb4>)
 2002672:	0084      	lsls	r4, r0, #2
 2002674:	681d      	ldr	r5, [r3, #0]
 2002676:	601a      	str	r2, [r3, #0]
 2002678:	465a      	mov	r2, fp
 200267a:	4b25      	ldr	r3, [pc, #148]	@ (2002710 <fifoSetValue32Handler+0xb8>)
 200267c:	5119      	str	r1, [r3, r4]
 200267e:	4b25      	ldr	r3, [pc, #148]	@ (2002714 <fifoSetValue32Handler+0xbc>)
 2002680:	511a      	str	r2, [r3, r4]
 2002682:	2900      	cmp	r1, #0
 2002684:	d035      	beq.n	20026f2 <fifoSetValue32Handler+0x9a>
 2002686:	4e24      	ldr	r6, [pc, #144]	@ (2002718 <fifoSetValue32Handler+0xc0>)
 2002688:	4a24      	ldr	r2, [pc, #144]	@ (200271c <fifoSetValue32Handler+0xc4>)
 200268a:	5b33      	ldrh	r3, [r6, r4]
 200268c:	4293      	cmp	r3, r2
 200268e:	d030      	beq.n	20026f2 <fifoSetValue32Handler+0x9a>
 2002690:	4b23      	ldr	r3, [pc, #140]	@ (2002720 <fifoSetValue32Handler+0xc8>)
 2002692:	4690      	mov	r8, r2
 2002694:	4f23      	ldr	r7, [pc, #140]	@ (2002724 <fifoSetValue32Handler+0xcc>)
 2002696:	9501      	str	r5, [sp, #4]
 2002698:	9300      	str	r3, [sp, #0]
 200269a:	e020      	b.n	20026de <fifoSetValue32Handler+0x86>
 200269c:	491b      	ldr	r1, [pc, #108]	@ (200270c <fifoSetValue32Handler+0xb4>)
 200269e:	4d1f      	ldr	r5, [pc, #124]	@ (200271c <fifoSetValue32Handler+0xc4>)
 20026a0:	680a      	ldr	r2, [r1, #0]
 20026a2:	4691      	mov	r9, r2
 20026a4:	2200      	movs	r2, #0
 20026a6:	600a      	str	r2, [r1, #0]
 20026a8:	00da      	lsls	r2, r3, #3
 20026aa:	3204      	adds	r2, #4
 20026ac:	59d0      	ldr	r0, [r2, r7]
 20026ae:	00da      	lsls	r2, r3, #3
 20026b0:	4694      	mov	ip, r2
 20026b2:	59d2      	ldr	r2, [r2, r7]
 20026b4:	0412      	lsls	r2, r2, #16
 20026b6:	0c12      	lsrs	r2, r2, #16
 20026b8:	5332      	strh	r2, [r6, r4]
 20026ba:	4662      	mov	r2, ip
 20026bc:	51d5      	str	r5, [r2, r7]
 20026be:	9d00      	ldr	r5, [sp, #0]
 20026c0:	886a      	ldrh	r2, [r5, #2]
 20026c2:	00d2      	lsls	r2, r2, #3
 20026c4:	51d3      	str	r3, [r2, r7]
 20026c6:	4a18      	ldr	r2, [pc, #96]	@ (2002728 <fifoSetValue32Handler+0xd0>)
 20026c8:	806b      	strh	r3, [r5, #2]
 20026ca:	6813      	ldr	r3, [r2, #0]
 20026cc:	3301      	adds	r3, #1
 20026ce:	6013      	str	r3, [r2, #0]
 20026d0:	464b      	mov	r3, r9
 20026d2:	600b      	str	r3, [r1, #0]
 20026d4:	4659      	mov	r1, fp
 20026d6:	47d0      	blx	sl
 20026d8:	5b33      	ldrh	r3, [r6, r4]
 20026da:	4543      	cmp	r3, r8
 20026dc:	d008      	beq.n	20026f0 <fifoSetValue32Handler+0x98>
 20026de:	5b33      	ldrh	r3, [r6, r4]
 20026e0:	4543      	cmp	r3, r8
 20026e2:	d1db      	bne.n	200269c <fifoSetValue32Handler+0x44>
 20026e4:	2000      	movs	r0, #0
 20026e6:	4659      	mov	r1, fp
 20026e8:	47d0      	blx	sl
 20026ea:	5b33      	ldrh	r3, [r6, r4]
 20026ec:	4543      	cmp	r3, r8
 20026ee:	d1f6      	bne.n	20026de <fifoSetValue32Handler+0x86>
 20026f0:	9d01      	ldr	r5, [sp, #4]
 20026f2:	2001      	movs	r0, #1
 20026f4:	4b05      	ldr	r3, [pc, #20]	@ (200270c <fifoSetValue32Handler+0xb4>)
 20026f6:	601d      	str	r5, [r3, #0]
 20026f8:	b003      	add	sp, #12
 20026fa:	bcf0      	pop	{r4, r5, r6, r7}
 20026fc:	46bb      	mov	fp, r7
 20026fe:	46b2      	mov	sl, r6
 2002700:	46a9      	mov	r9, r5
 2002702:	46a0      	mov	r8, r4
 2002704:	bdf0      	pop	{r4, r5, r6, r7, pc}
 2002706:	2000      	movs	r0, #0
 2002708:	e7f6      	b.n	20026f8 <fifoSetValue32Handler+0xa0>
 200270a:	46c0      	nop			@ (mov r8, r8)
 200270c:	04000208 	streq	r0, [r0], #-520	@ 0xfffffdf8
 2002710:	0201b04c 	andeq	fp, r1, #76	@ 0x4c
 2002714:	0201b00c 	andeq	fp, r1, #12
 2002718:	0201b10c 	andeq	fp, r1, #12, 2
 200271c:	0000ffff 	strdeq	pc, [r0], -pc	@ <UNPREDICTABLE>
 2002720:	02019740 	andeq	r9, r1, #64, 14	@ 0x1000000
 2002724:	0201b1cc 	andeq	fp, r1, #204, 2	@ 0x33
 2002728:	02019734 	andeq	r9, r1, #52, 14	@ 0xd00000

0200272c <fifoSendValue32>:
 200272c:	b500      	push	{lr}
 200272e:	b083      	sub	sp, #12
 2002730:	280f      	cmp	r0, #15
 2002732:	d812      	bhi.n	200275a <fifoSendValue32+0x2e>
 2002734:	2380      	movs	r3, #128	@ 0x80
 2002736:	049b      	lsls	r3, r3, #18
 2002738:	4299      	cmp	r1, r3
 200273a:	d311      	bcc.n	2002760 <fifoSendValue32+0x34>
 200273c:	4b10      	ldr	r3, [pc, #64]	@ (2002780 <fifoSendValue32+0x54>)
 200273e:	9101      	str	r1, [sp, #4]
 2002740:	681b      	ldr	r3, [r3, #0]
 2002742:	2b01      	cmp	r3, #1
 2002744:	d909      	bls.n	200275a <fifoSendValue32+0x2e>
 2002746:	0703      	lsls	r3, r0, #28
 2002748:	20c0      	movs	r0, #192	@ 0xc0
 200274a:	04c0      	lsls	r0, r0, #19
 200274c:	2101      	movs	r1, #1
 200274e:	4318      	orrs	r0, r3
 2002750:	aa01      	add	r2, sp, #4
 2002752:	f7ff fec3 	bl	20024dc <fifoInternalSend.part.0>
 2002756:	2001      	movs	r0, #1
 2002758:	e000      	b.n	200275c <fifoSendValue32+0x30>
 200275a:	2000      	movs	r0, #0
 200275c:	b003      	add	sp, #12
 200275e:	bd00      	pop	{pc}
 2002760:	4b07      	ldr	r3, [pc, #28]	@ (2002780 <fifoSendValue32+0x54>)
 2002762:	681b      	ldr	r3, [r3, #0]
 2002764:	2b00      	cmp	r3, #0
 2002766:	d0f8      	beq.n	200275a <fifoSendValue32+0x2e>
 2002768:	0700      	lsls	r0, r0, #28
 200276a:	4301      	orrs	r1, r0
 200276c:	2080      	movs	r0, #128	@ 0x80
 200276e:	04c0      	lsls	r0, r0, #19
 2002770:	4308      	orrs	r0, r1
 2002772:	2200      	movs	r2, #0
 2002774:	2100      	movs	r1, #0
 2002776:	f7ff feb1 	bl	20024dc <fifoInternalSend.part.0>
 200277a:	2001      	movs	r0, #1
 200277c:	e7ee      	b.n	200275c <fifoSendValue32+0x30>
 200277e:	46c0      	nop			@ (mov r8, r8)
 2002780:	02019734 	andeq	r9, r1, #52, 14	@ 0xd00000

02002784 <fifoGetDatamsg>:
 2002784:	b5f0      	push	{r4, r5, r6, r7, lr}
 2002786:	4657      	mov	r7, sl
 2002788:	46de      	mov	lr, fp
 200278a:	464e      	mov	r6, r9
 200278c:	4645      	mov	r5, r8
 200278e:	b5e0      	push	{r5, r6, r7, lr}
 2002790:	b087      	sub	sp, #28
 2002792:	af00      	add	r7, sp, #0
 2002794:	6179      	str	r1, [r7, #20]
 2002796:	613a      	str	r2, [r7, #16]
 2002798:	280f      	cmp	r0, #15
 200279a:	d862      	bhi.n	2002862 <fifoGetDatamsg+0xde>
 200279c:	4b32      	ldr	r3, [pc, #200]	@ (2002868 <fifoGetDatamsg+0xe4>)
 200279e:	469b      	mov	fp, r3
 20027a0:	465a      	mov	r2, fp
 20027a2:	0083      	lsls	r3, r0, #2
 20027a4:	607b      	str	r3, [r7, #4]
 20027a6:	5ad3      	ldrh	r3, [r2, r3]
 20027a8:	4a30      	ldr	r2, [pc, #192]	@ (200286c <fifoGetDatamsg+0xe8>)
 20027aa:	001d      	movs	r5, r3
 20027ac:	4691      	mov	r9, r2
 20027ae:	4293      	cmp	r3, r2
 20027b0:	d057      	beq.n	2002862 <fifoGetDatamsg+0xde>
 20027b2:	4a2f      	ldr	r2, [pc, #188]	@ (2002870 <fifoGetDatamsg+0xec>)
 20027b4:	482f      	ldr	r0, [pc, #188]	@ (2002874 <fifoGetDatamsg+0xf0>)
 20027b6:	6811      	ldr	r1, [r2, #0]
 20027b8:	00de      	lsls	r6, r3, #3
 20027ba:	60b9      	str	r1, [r7, #8]
 20027bc:	2100      	movs	r1, #0
 20027be:	6011      	str	r1, [r2, #0]
 20027c0:	5982      	ldr	r2, [r0, r6]
 20027c2:	0112      	lsls	r2, r2, #4
 20027c4:	0d12      	lsrs	r2, r2, #20
 20027c6:	60fa      	str	r2, [r7, #12]
 20027c8:	3203      	adds	r2, #3
 20027ca:	1092      	asrs	r2, r2, #2
 20027cc:	0091      	lsls	r1, r2, #2
 20027ce:	1dcc      	adds	r4, r1, #7
 20027d0:	468c      	mov	ip, r1
 20027d2:	4669      	mov	r1, sp
 20027d4:	08e4      	lsrs	r4, r4, #3
 20027d6:	00e4      	lsls	r4, r4, #3
 20027d8:	1b0c      	subs	r4, r1, r4
 20027da:	46a5      	mov	sp, r4
 20027dc:	2a00      	cmp	r2, #0
 20027de:	d026      	beq.n	200282e <fifoGetDatamsg+0xaa>
 20027e0:	4a25      	ldr	r2, [pc, #148]	@ (2002878 <fifoGetDatamsg+0xf4>)
 20027e2:	4926      	ldr	r1, [pc, #152]	@ (200287c <fifoGetDatamsg+0xf8>)
 20027e4:	46e0      	mov	r8, ip
 20027e6:	4694      	mov	ip, r2
 20027e8:	000a      	movs	r2, r1
 20027ea:	0025      	movs	r5, r4
 20027ec:	4661      	mov	r1, ip
 20027ee:	46ca      	mov	sl, r9
 20027f0:	4694      	mov	ip, r2
 20027f2:	44a0      	add	r8, r4
 20027f4:	603c      	str	r4, [r7, #0]
 20027f6:	e003      	b.n	2002800 <fifoGetDatamsg+0x7c>
 20027f8:	3504      	adds	r5, #4
 20027fa:	4545      	cmp	r5, r8
 20027fc:	d015      	beq.n	200282a <fifoGetDatamsg+0xa6>
 20027fe:	00de      	lsls	r6, r3, #3
 2002800:	00da      	lsls	r2, r3, #3
 2002802:	3204      	adds	r2, #4
 2002804:	5882      	ldr	r2, [r0, r2]
 2002806:	5984      	ldr	r4, [r0, r6]
 2002808:	602a      	str	r2, [r5, #0]
 200280a:	0424      	lsls	r4, r4, #16
 200280c:	001a      	movs	r2, r3
 200280e:	0c23      	lsrs	r3, r4, #16
 2002810:	464c      	mov	r4, r9
 2002812:	5184      	str	r4, [r0, r6]
 2002814:	884c      	ldrh	r4, [r1, #2]
 2002816:	00e4      	lsls	r4, r4, #3
 2002818:	5102      	str	r2, [r0, r4]
 200281a:	804a      	strh	r2, [r1, #2]
 200281c:	4662      	mov	r2, ip
 200281e:	4664      	mov	r4, ip
 2002820:	6812      	ldr	r2, [r2, #0]
 2002822:	3201      	adds	r2, #1
 2002824:	6022      	str	r2, [r4, #0]
 2002826:	4553      	cmp	r3, sl
 2002828:	d1e6      	bne.n	20027f8 <fifoGetDatamsg+0x74>
 200282a:	001d      	movs	r5, r3
 200282c:	683c      	ldr	r4, [r7, #0]
 200282e:	465b      	mov	r3, fp
 2002830:	687a      	ldr	r2, [r7, #4]
 2002832:	529d      	strh	r5, [r3, r2]
 2002834:	68fd      	ldr	r5, [r7, #12]
 2002836:	697b      	ldr	r3, [r7, #20]
 2002838:	429d      	cmp	r5, r3
 200283a:	dc10      	bgt.n	200285e <fifoGetDatamsg+0xda>
 200283c:	002a      	movs	r2, r5
 200283e:	0021      	movs	r1, r4
 2002840:	6938      	ldr	r0, [r7, #16]
 2002842:	f010 fe8f 	bl	2013564 <__memcpy_from_thumb>
 2002846:	4b0a      	ldr	r3, [pc, #40]	@ (2002870 <fifoGetDatamsg+0xec>)
 2002848:	68ba      	ldr	r2, [r7, #8]
 200284a:	601a      	str	r2, [r3, #0]
 200284c:	0028      	movs	r0, r5
 200284e:	46bd      	mov	sp, r7
 2002850:	b007      	add	sp, #28
 2002852:	bcf0      	pop	{r4, r5, r6, r7}
 2002854:	46bb      	mov	fp, r7
 2002856:	46b2      	mov	sl, r6
 2002858:	46a9      	mov	r9, r5
 200285a:	46a0      	mov	r8, r4
 200285c:	bdf0      	pop	{r4, r5, r6, r7, pc}
 200285e:	001d      	movs	r5, r3
 2002860:	e7ec      	b.n	200283c <fifoGetDatamsg+0xb8>
 2002862:	2501      	movs	r5, #1
 2002864:	426d      	negs	r5, r5
 2002866:	e7f1      	b.n	200284c <fifoGetDatamsg+0xc8>
 2002868:	0201b14c 	andeq	fp, r1, #76, 2
 200286c:	0000ffff 	strdeq	pc, [r0], -pc	@ <UNPREDICTABLE>
 2002870:	04000208 	streq	r0, [r0], #-520	@ 0xfffffdf8
 2002874:	0201b1cc 	andeq	fp, r1, #204, 2	@ 0x33
 2002878:	02019740 	andeq	r9, r1, #64, 14	@ 0x1000000
 200287c:	02019734 	andeq	r9, r1, #52, 14	@ 0xd00000

02002880 <fifoInternalRecvInterrupt>:
 2002880:	b5f0      	push	{r4, r5, r6, r7, lr}
 2002882:	464e      	mov	r6, r9
 2002884:	46de      	mov	lr, fp
 2002886:	4657      	mov	r7, sl
 2002888:	4645      	mov	r5, r8
 200288a:	2120      	movs	r1, #32
 200288c:	4bc4      	ldr	r3, [pc, #784]	@ (2002ba0 <fifoInternalRecvInterrupt+0x320>)
 200288e:	b5e0      	push	{r5, r6, r7, lr}
 2002890:	881a      	ldrh	r2, [r3, #0]
 2002892:	b087      	sub	sp, #28
 2002894:	4691      	mov	r9, r2
 2002896:	881a      	ldrh	r2, [r3, #0]
 2002898:	4cc2      	ldr	r4, [pc, #776]	@ (2002ba4 <fifoInternalRecvInterrupt+0x324>)
 200289a:	438a      	bics	r2, r1
 200289c:	801a      	strh	r2, [r3, #0]
 200289e:	4ac2      	ldr	r2, [pc, #776]	@ (2002ba8 <fifoInternalRecvInterrupt+0x328>)
 20028a0:	49c2      	ldr	r1, [pc, #776]	@ (2002bac <fifoInternalRecvInterrupt+0x32c>)
 20028a2:	6813      	ldr	r3, [r2, #0]
 20028a4:	400b      	ands	r3, r1
 20028a6:	6013      	str	r3, [r2, #0]
 20028a8:	2301      	movs	r3, #1
 20028aa:	6023      	str	r3, [r4, #0]
 20028ac:	4bc0      	ldr	r3, [pc, #768]	@ (2002bb0 <fifoInternalRecvInterrupt+0x330>)
 20028ae:	881b      	ldrh	r3, [r3, #0]
 20028b0:	05db      	lsls	r3, r3, #23
 20028b2:	d42a      	bmi.n	200290a <fifoInternalRecvInterrupt+0x8a>
 20028b4:	2300      	movs	r3, #0
 20028b6:	4dbf      	ldr	r5, [pc, #764]	@ (2002bb4 <fifoInternalRecvInterrupt+0x334>)
 20028b8:	4698      	mov	r8, r3
 20028ba:	4ebf      	ldr	r6, [pc, #764]	@ (2002bb8 <fifoInternalRecvInterrupt+0x338>)
 20028bc:	e020      	b.n	2002900 <fifoInternalRecvInterrupt+0x80>
 20028be:	8831      	ldrh	r1, [r6, #0]
 20028c0:	8833      	ldrh	r3, [r6, #0]
 20028c2:	4abe      	ldr	r2, [pc, #760]	@ (2002bbc <fifoInternalRecvInterrupt+0x33c>)
 20028c4:	00db      	lsls	r3, r3, #3
 20028c6:	58d3      	ldr	r3, [r2, r3]
 20028c8:	4fbd      	ldr	r7, [pc, #756]	@ (2002bc0 <fifoInternalRecvInterrupt+0x340>)
 20028ca:	041b      	lsls	r3, r3, #16
 20028cc:	0c1b      	lsrs	r3, r3, #16
 20028ce:	00c8      	lsls	r0, r1, #3
 20028d0:	8033      	strh	r3, [r6, #0]
 20028d2:	5017      	str	r7, [r2, r0]
 20028d4:	6828      	ldr	r0, [r5, #0]
 20028d6:	004b      	lsls	r3, r1, #1
 20028d8:	3801      	subs	r0, #1
 20028da:	6028      	str	r0, [r5, #0]
 20028dc:	42b9      	cmp	r1, r7
 20028de:	d014      	beq.n	200290a <fifoInternalRecvInterrupt+0x8a>
 20028e0:	2082      	movs	r0, #130	@ 0x82
 20028e2:	04c0      	lsls	r0, r0, #19
 20028e4:	6800      	ldr	r0, [r0, #0]
 20028e6:	3301      	adds	r3, #1
 20028e8:	009b      	lsls	r3, r3, #2
 20028ea:	50d0      	str	r0, [r2, r3]
 20028ec:	000a      	movs	r2, r1
 20028ee:	48b5      	ldr	r0, [pc, #724]	@ (2002bc4 <fifoInternalRecvInterrupt+0x344>)
 20028f0:	f7ff fd96 	bl	2002420 <fifo_queueBlock>
 20028f4:	2301      	movs	r3, #1
 20028f6:	6023      	str	r3, [r4, #0]
 20028f8:	4bad      	ldr	r3, [pc, #692]	@ (2002bb0 <fifoInternalRecvInterrupt+0x330>)
 20028fa:	881b      	ldrh	r3, [r3, #0]
 20028fc:	05db      	lsls	r3, r3, #23
 20028fe:	d404      	bmi.n	200290a <fifoInternalRecvInterrupt+0x8a>
 2002900:	4643      	mov	r3, r8
 2002902:	6023      	str	r3, [r4, #0]
 2002904:	682b      	ldr	r3, [r5, #0]
 2002906:	2b00      	cmp	r3, #0
 2002908:	d1d9      	bne.n	20028be <fifoInternalRecvInterrupt+0x3e>
 200290a:	2300      	movs	r3, #0
 200290c:	49a5      	ldr	r1, [pc, #660]	@ (2002ba4 <fifoInternalRecvInterrupt+0x324>)
 200290e:	4aa6      	ldr	r2, [pc, #664]	@ (2002ba8 <fifoInternalRecvInterrupt+0x328>)
 2002910:	600b      	str	r3, [r1, #0]
 2002912:	2380      	movs	r3, #128	@ 0x80
 2002914:	6810      	ldr	r0, [r2, #0]
 2002916:	4dac      	ldr	r5, [pc, #688]	@ (2002bc8 <fifoInternalRecvInterrupt+0x348>)
 2002918:	02db      	lsls	r3, r3, #11
 200291a:	4303      	orrs	r3, r0
 200291c:	6013      	str	r3, [r2, #0]
 200291e:	682b      	ldr	r3, [r5, #0]
 2002920:	2b00      	cmp	r3, #0
 2002922:	d16f      	bne.n	2002a04 <fifoInternalRecvInterrupt+0x184>
 2002924:	4ba7      	ldr	r3, [pc, #668]	@ (2002bc4 <fifoInternalRecvInterrupt+0x344>)
 2002926:	4698      	mov	r8, r3
 2002928:	881a      	ldrh	r2, [r3, #0]
 200292a:	4ba5      	ldr	r3, [pc, #660]	@ (2002bc0 <fifoInternalRecvInterrupt+0x340>)
 200292c:	429a      	cmp	r2, r3
 200292e:	d069      	beq.n	2002a04 <fifoInternalRecvInterrupt+0x184>
 2002930:	2301      	movs	r3, #1
 2002932:	602b      	str	r3, [r5, #0]
 2002934:	600b      	str	r3, [r1, #0]
 2002936:	4ba0      	ldr	r3, [pc, #640]	@ (2002bb8 <fifoInternalRecvInterrupt+0x338>)
 2002938:	4ea0      	ldr	r6, [pc, #640]	@ (2002bbc <fifoInternalRecvInterrupt+0x33c>)
 200293a:	9303      	str	r3, [sp, #12]
 200293c:	4b9d      	ldr	r3, [pc, #628]	@ (2002bb4 <fifoInternalRecvInterrupt+0x334>)
 200293e:	9505      	str	r5, [sp, #20]
 2002940:	469b      	mov	fp, r3
 2002942:	4ba2      	ldr	r3, [pc, #648]	@ (2002bcc <fifoInternalRecvInterrupt+0x34c>)
 2002944:	469a      	mov	sl, r3
 2002946:	464b      	mov	r3, r9
 2002948:	9304      	str	r3, [sp, #16]
 200294a:	e031      	b.n	20029b0 <fifoInternalRecvInterrupt+0x130>
 200294c:	0f27      	lsrs	r7, r4, #28
 200294e:	9701      	str	r7, [sp, #4]
 2002950:	0127      	lsls	r7, r4, #4
 2002952:	d561      	bpl.n	2002a18 <fifoInternalRecvInterrupt+0x198>
 2002954:	0224      	lsls	r4, r4, #8
 2002956:	0a23      	lsrs	r3, r4, #8
 2002958:	2480      	movs	r4, #128	@ 0x80
 200295a:	04a4      	lsls	r4, r4, #18
 200295c:	431c      	orrs	r4, r3
 200295e:	2300      	movs	r3, #0
 2002960:	4647      	mov	r7, r8
 2002962:	4a90      	ldr	r2, [pc, #576]	@ (2002ba4 <fifoInternalRecvInterrupt+0x324>)
 2002964:	00cd      	lsls	r5, r1, #3
 2002966:	6013      	str	r3, [r2, #0]
 2002968:	5973      	ldr	r3, [r6, r5]
 200296a:	041b      	lsls	r3, r3, #16
 200296c:	0c1b      	lsrs	r3, r3, #16
 200296e:	803b      	strh	r3, [r7, #0]
 2002970:	9f01      	ldr	r7, [sp, #4]
 2002972:	4b97      	ldr	r3, [pc, #604]	@ (2002bd0 <fifoInternalRecvInterrupt+0x350>)
 2002974:	00bf      	lsls	r7, r7, #2
 2002976:	58fb      	ldr	r3, [r7, r3]
 2002978:	2b00      	cmp	r3, #0
 200297a:	d100      	bne.n	200297e <fifoInternalRecvInterrupt+0xfe>
 200297c:	e0f7      	b.n	2002b6e <fifoInternalRecvInterrupt+0x2ee>
 200297e:	4890      	ldr	r0, [pc, #576]	@ (2002bc0 <fifoInternalRecvInterrupt+0x340>)
 2002980:	5170      	str	r0, [r6, r5]
 2002982:	4d8d      	ldr	r5, [pc, #564]	@ (2002bb8 <fifoInternalRecvInterrupt+0x338>)
 2002984:	8868      	ldrh	r0, [r5, #2]
 2002986:	00c0      	lsls	r0, r0, #3
 2002988:	5031      	str	r1, [r6, r0]
 200298a:	488a      	ldr	r0, [pc, #552]	@ (2002bb4 <fifoInternalRecvInterrupt+0x334>)
 200298c:	8069      	strh	r1, [r5, #2]
 200298e:	6801      	ldr	r1, [r0, #0]
 2002990:	3101      	adds	r1, #1
 2002992:	6001      	str	r1, [r0, #0]
 2002994:	2101      	movs	r1, #1
 2002996:	6011      	str	r1, [r2, #0]
 2002998:	4a8e      	ldr	r2, [pc, #568]	@ (2002bd4 <fifoInternalRecvInterrupt+0x354>)
 200299a:	0020      	movs	r0, r4
 200299c:	58b9      	ldr	r1, [r7, r2]
 200299e:	4798      	blx	r3
 20029a0:	2201      	movs	r2, #1
 20029a2:	4b80      	ldr	r3, [pc, #512]	@ (2002ba4 <fifoInternalRecvInterrupt+0x324>)
 20029a4:	601a      	str	r2, [r3, #0]
 20029a6:	4643      	mov	r3, r8
 20029a8:	881a      	ldrh	r2, [r3, #0]
 20029aa:	4b85      	ldr	r3, [pc, #532]	@ (2002bc0 <fifoInternalRecvInterrupt+0x340>)
 20029ac:	429a      	cmp	r2, r3
 20029ae:	d022      	beq.n	20029f6 <fifoInternalRecvInterrupt+0x176>
 20029b0:	4643      	mov	r3, r8
 20029b2:	8819      	ldrh	r1, [r3, #0]
 20029b4:	27c0      	movs	r7, #192	@ 0xc0
 20029b6:	004b      	lsls	r3, r1, #1
 20029b8:	1c5d      	adds	r5, r3, #1
 20029ba:	00a8      	lsls	r0, r5, #2
 20029bc:	5834      	ldr	r4, [r6, r0]
 20029be:	053f      	lsls	r7, r7, #20
 20029c0:	0022      	movs	r2, r4
 20029c2:	403a      	ands	r2, r7
 20029c4:	42ba      	cmp	r2, r7
 20029c6:	d1c1      	bne.n	200294c <fifoInternalRecvInterrupt+0xcc>
 20029c8:	4b83      	ldr	r3, [pc, #524]	@ (2002bd8 <fifoInternalRecvInterrupt+0x358>)
 20029ca:	0224      	lsls	r4, r4, #8
 20029cc:	0a24      	lsrs	r4, r4, #8
 20029ce:	429c      	cmp	r4, r3
 20029d0:	d1e9      	bne.n	20029a6 <fifoInternalRecvInterrupt+0x126>
 20029d2:	2380      	movs	r3, #128	@ 0x80
 20029d4:	210f      	movs	r1, #15
 20029d6:	4a81      	ldr	r2, [pc, #516]	@ (2002bdc <fifoInternalRecvInterrupt+0x35c>)
 20029d8:	005b      	lsls	r3, r3, #1
 20029da:	8013      	strh	r3, [r2, #0]
 20029dc:	8813      	ldrh	r3, [r2, #0]
 20029de:	400b      	ands	r3, r1
 20029e0:	2b01      	cmp	r3, #1
 20029e2:	d1fb      	bne.n	20029dc <fifoInternalRecvInterrupt+0x15c>
 20029e4:	2300      	movs	r3, #0
 20029e6:	8013      	strh	r3, [r2, #0]
 20029e8:	f010 fda2 	bl	2013530 <__swiSoftReset_from_thumb>
 20029ec:	4643      	mov	r3, r8
 20029ee:	881a      	ldrh	r2, [r3, #0]
 20029f0:	4b73      	ldr	r3, [pc, #460]	@ (2002bc0 <fifoInternalRecvInterrupt+0x340>)
 20029f2:	429a      	cmp	r2, r3
 20029f4:	d1dc      	bne.n	20029b0 <fifoInternalRecvInterrupt+0x130>
 20029f6:	9b04      	ldr	r3, [sp, #16]
 20029f8:	9d05      	ldr	r5, [sp, #20]
 20029fa:	4699      	mov	r9, r3
 20029fc:	2300      	movs	r3, #0
 20029fe:	4a69      	ldr	r2, [pc, #420]	@ (2002ba4 <fifoInternalRecvInterrupt+0x324>)
 2002a00:	6013      	str	r3, [r2, #0]
 2002a02:	602b      	str	r3, [r5, #0]
 2002a04:	464a      	mov	r2, r9
 2002a06:	4b66      	ldr	r3, [pc, #408]	@ (2002ba0 <fifoInternalRecvInterrupt+0x320>)
 2002a08:	801a      	strh	r2, [r3, #0]
 2002a0a:	b007      	add	sp, #28
 2002a0c:	bcf0      	pop	{r4, r5, r6, r7}
 2002a0e:	46bb      	mov	fp, r7
 2002a10:	46b2      	mov	sl, r6
 2002a12:	46a9      	mov	r9, r5
 2002a14:	46a0      	mov	r8, r4
 2002a16:	bdf0      	pop	{r4, r5, r6, r7, pc}
 2002a18:	2080      	movs	r0, #128	@ 0x80
 2002a1a:	04c0      	lsls	r0, r0, #19
 2002a1c:	4282      	cmp	r2, r0
 2002a1e:	d139      	bne.n	2002a94 <fifoInternalRecvInterrupt+0x214>
 2002a20:	01a2      	lsls	r2, r4, #6
 2002a22:	d400      	bmi.n	2002a26 <fifoInternalRecvInterrupt+0x1a6>
 2002a24:	e0aa      	b.n	2002b7c <fifoInternalRecvInterrupt+0x2fc>
 2002a26:	00cb      	lsls	r3, r1, #3
 2002a28:	58f2      	ldr	r2, [r6, r3]
 2002a2a:	4865      	ldr	r0, [pc, #404]	@ (2002bc0 <fifoInternalRecvInterrupt+0x340>)
 2002a2c:	0412      	lsls	r2, r2, #16
 2002a2e:	0c12      	lsrs	r2, r2, #16
 2002a30:	4282      	cmp	r2, r0
 2002a32:	d0e0      	beq.n	20029f6 <fifoInternalRecvInterrupt+0x176>
 2002a34:	50f0      	str	r0, [r6, r3]
 2002a36:	4860      	ldr	r0, [pc, #384]	@ (2002bb8 <fifoInternalRecvInterrupt+0x338>)
 2002a38:	8843      	ldrh	r3, [r0, #2]
 2002a3a:	00db      	lsls	r3, r3, #3
 2002a3c:	50f1      	str	r1, [r6, r3]
 2002a3e:	8041      	strh	r1, [r0, #2]
 2002a40:	495c      	ldr	r1, [pc, #368]	@ (2002bb4 <fifoInternalRecvInterrupt+0x334>)
 2002a42:	680b      	ldr	r3, [r1, #0]
 2002a44:	3301      	adds	r3, #1
 2002a46:	600b      	str	r3, [r1, #0]
 2002a48:	0053      	lsls	r3, r2, #1
 2002a4a:	1c5d      	adds	r5, r3, #1
 2002a4c:	00a9      	lsls	r1, r5, #2
 2002a4e:	5870      	ldr	r0, [r6, r1]
 2002a50:	0011      	movs	r1, r2
 2002a52:	2400      	movs	r4, #0
 2002a54:	4647      	mov	r7, r8
 2002a56:	4a53      	ldr	r2, [pc, #332]	@ (2002ba4 <fifoInternalRecvInterrupt+0x324>)
 2002a58:	009b      	lsls	r3, r3, #2
 2002a5a:	6014      	str	r4, [r2, #0]
 2002a5c:	58f4      	ldr	r4, [r6, r3]
 2002a5e:	0424      	lsls	r4, r4, #16
 2002a60:	0c24      	lsrs	r4, r4, #16
 2002a62:	803c      	strh	r4, [r7, #0]
 2002a64:	9f01      	ldr	r7, [sp, #4]
 2002a66:	4c5e      	ldr	r4, [pc, #376]	@ (2002be0 <fifoInternalRecvInterrupt+0x360>)
 2002a68:	00bf      	lsls	r7, r7, #2
 2002a6a:	593c      	ldr	r4, [r7, r4]
 2002a6c:	2c00      	cmp	r4, #0
 2002a6e:	d100      	bne.n	2002a72 <fifoInternalRecvInterrupt+0x1f2>
 2002a70:	e08b      	b.n	2002b8a <fifoInternalRecvInterrupt+0x30a>
 2002a72:	4d53      	ldr	r5, [pc, #332]	@ (2002bc0 <fifoInternalRecvInterrupt+0x340>)
 2002a74:	50f5      	str	r5, [r6, r3]
 2002a76:	4d50      	ldr	r5, [pc, #320]	@ (2002bb8 <fifoInternalRecvInterrupt+0x338>)
 2002a78:	886b      	ldrh	r3, [r5, #2]
 2002a7a:	00db      	lsls	r3, r3, #3
 2002a7c:	50f1      	str	r1, [r6, r3]
 2002a7e:	8069      	strh	r1, [r5, #2]
 2002a80:	494c      	ldr	r1, [pc, #304]	@ (2002bb4 <fifoInternalRecvInterrupt+0x334>)
 2002a82:	680b      	ldr	r3, [r1, #0]
 2002a84:	3301      	adds	r3, #1
 2002a86:	600b      	str	r3, [r1, #0]
 2002a88:	2301      	movs	r3, #1
 2002a8a:	6013      	str	r3, [r2, #0]
 2002a8c:	4b55      	ldr	r3, [pc, #340]	@ (2002be4 <fifoInternalRecvInterrupt+0x364>)
 2002a8e:	58f9      	ldr	r1, [r7, r3]
 2002a90:	47a0      	blx	r4
 2002a92:	e785      	b.n	20029a0 <fifoInternalRecvInterrupt+0x120>
 2002a94:	01e4      	lsls	r4, r4, #7
 2002a96:	09e2      	lsrs	r2, r4, #7
 2002a98:	1cd4      	adds	r4, r2, #3
 2002a9a:	9202      	str	r2, [sp, #8]
 2002a9c:	2500      	movs	r5, #0
 2002a9e:	000a      	movs	r2, r1
 2002aa0:	10a4      	asrs	r4, r4, #2
 2002aa2:	d07a      	beq.n	2002b9a <fifoInternalRecvInterrupt+0x31a>
 2002aa4:	4846      	ldr	r0, [pc, #280]	@ (2002bc0 <fifoInternalRecvInterrupt+0x340>)
 2002aa6:	469c      	mov	ip, r3
 2002aa8:	4681      	mov	r9, r0
 2002aaa:	0023      	movs	r3, r4
 2002aac:	9f01      	ldr	r7, [sp, #4]
 2002aae:	e005      	b.n	2002abc <fifoInternalRecvInterrupt+0x23c>
 2002ab0:	5932      	ldr	r2, [r6, r4]
 2002ab2:	3501      	adds	r5, #1
 2002ab4:	0412      	lsls	r2, r2, #16
 2002ab6:	0c12      	lsrs	r2, r2, #16
 2002ab8:	42ab      	cmp	r3, r5
 2002aba:	d062      	beq.n	2002b82 <fifoInternalRecvInterrupt+0x302>
 2002abc:	00d4      	lsls	r4, r2, #3
 2002abe:	5930      	ldr	r0, [r6, r4]
 2002ac0:	0400      	lsls	r0, r0, #16
 2002ac2:	0c00      	lsrs	r0, r0, #16
 2002ac4:	4548      	cmp	r0, r9
 2002ac6:	d1f3      	bne.n	2002ab0 <fifoInternalRecvInterrupt+0x230>
 2002ac8:	0020      	movs	r0, r4
 2002aca:	9701      	str	r7, [sp, #4]
 2002acc:	001c      	movs	r4, r3
 2002ace:	4663      	mov	r3, ip
 2002ad0:	42ac      	cmp	r4, r5
 2002ad2:	d000      	beq.n	2002ad6 <fifoInternalRecvInterrupt+0x256>
 2002ad4:	e78f      	b.n	20029f6 <fifoInternalRecvInterrupt+0x176>
 2002ad6:	2400      	movs	r4, #0
 2002ad8:	4d32      	ldr	r5, [pc, #200]	@ (2002ba4 <fifoInternalRecvInterrupt+0x324>)
 2002ada:	009b      	lsls	r3, r3, #2
 2002adc:	602c      	str	r4, [r5, #0]
 2002ade:	4644      	mov	r4, r8
 2002ae0:	5830      	ldr	r0, [r6, r0]
 2002ae2:	9f02      	ldr	r7, [sp, #8]
 2002ae4:	0400      	lsls	r0, r0, #16
 2002ae6:	0c00      	lsrs	r0, r0, #16
 2002ae8:	8020      	strh	r0, [r4, #0]
 2002aea:	58f0      	ldr	r0, [r6, r3]
 2002aec:	0400      	lsls	r0, r0, #16
 2002aee:	0c04      	lsrs	r4, r0, #16
 2002af0:	46a4      	mov	ip, r4
 2002af2:	4c33      	ldr	r4, [pc, #204]	@ (2002bc0 <fifoInternalRecvInterrupt+0x340>)
 2002af4:	0b40      	lsrs	r0, r0, #13
 2002af6:	50f4      	str	r4, [r6, r3]
 2002af8:	9c03      	ldr	r4, [sp, #12]
 2002afa:	8863      	ldrh	r3, [r4, #2]
 2002afc:	00db      	lsls	r3, r3, #3
 2002afe:	50f1      	str	r1, [r6, r3]
 2002b00:	465b      	mov	r3, fp
 2002b02:	8061      	strh	r1, [r4, #2]
 2002b04:	4659      	mov	r1, fp
 2002b06:	681b      	ldr	r3, [r3, #0]
 2002b08:	3301      	adds	r3, #1
 2002b0a:	600b      	str	r3, [r1, #0]
 2002b0c:	043b      	lsls	r3, r7, #16
 2002b0e:	4699      	mov	r9, r3
 2002b10:	464c      	mov	r4, r9
 2002b12:	5831      	ldr	r1, [r6, r0]
 2002b14:	4b34      	ldr	r3, [pc, #208]	@ (2002be8 <fifoInternalRecvInterrupt+0x368>)
 2002b16:	0409      	lsls	r1, r1, #16
 2002b18:	0c09      	lsrs	r1, r1, #16
 2002b1a:	4023      	ands	r3, r4
 2002b1c:	430b      	orrs	r3, r1
 2002b1e:	21a0      	movs	r1, #160	@ 0xa0
 2002b20:	05c9      	lsls	r1, r1, #23
 2002b22:	430b      	orrs	r3, r1
 2002b24:	5033      	str	r3, [r6, r0]
 2002b26:	9b01      	ldr	r3, [sp, #4]
 2002b28:	4661      	mov	r1, ip
 2002b2a:	009b      	lsls	r3, r3, #2
 2002b2c:	0018      	movs	r0, r3
 2002b2e:	4699      	mov	r9, r3
 2002b30:	4450      	add	r0, sl
 2002b32:	f7ff fc75 	bl	2002420 <fifo_queueBlock>
 2002b36:	464a      	mov	r2, r9
 2002b38:	4b2c      	ldr	r3, [pc, #176]	@ (2002bec <fifoInternalRecvInterrupt+0x36c>)
 2002b3a:	58d3      	ldr	r3, [r2, r3]
 2002b3c:	2b00      	cmp	r3, #0
 2002b3e:	d100      	bne.n	2002b42 <fifoInternalRecvInterrupt+0x2c2>
 2002b40:	e72e      	b.n	20029a0 <fifoInternalRecvInterrupt+0x120>
 2002b42:	4649      	mov	r1, r9
 2002b44:	4652      	mov	r2, sl
 2002b46:	5a8a      	ldrh	r2, [r1, r2]
 2002b48:	0038      	movs	r0, r7
 2002b4a:	0014      	movs	r4, r2
 2002b4c:	2201      	movs	r2, #1
 2002b4e:	602a      	str	r2, [r5, #0]
 2002b50:	4a27      	ldr	r2, [pc, #156]	@ (2002bf0 <fifoInternalRecvInterrupt+0x370>)
 2002b52:	5889      	ldr	r1, [r1, r2]
 2002b54:	4798      	blx	r3
 2002b56:	4653      	mov	r3, sl
 2002b58:	464a      	mov	r2, r9
 2002b5a:	5ad3      	ldrh	r3, [r2, r3]
 2002b5c:	429c      	cmp	r4, r3
 2002b5e:	d000      	beq.n	2002b62 <fifoInternalRecvInterrupt+0x2e2>
 2002b60:	e71e      	b.n	20029a0 <fifoInternalRecvInterrupt+0x120>
 2002b62:	2200      	movs	r2, #0
 2002b64:	2100      	movs	r1, #0
 2002b66:	9801      	ldr	r0, [sp, #4]
 2002b68:	f7ff fe0c 	bl	2002784 <fifoGetDatamsg>
 2002b6c:	e718      	b.n	20029a0 <fifoInternalRecvInterrupt+0x120>
 2002b6e:	5034      	str	r4, [r6, r0]
 2002b70:	4820      	ldr	r0, [pc, #128]	@ (2002bf4 <fifoInternalRecvInterrupt+0x374>)
 2002b72:	000a      	movs	r2, r1
 2002b74:	1838      	adds	r0, r7, r0
 2002b76:	f7ff fc53 	bl	2002420 <fifo_queueBlock>
 2002b7a:	e711      	b.n	20029a0 <fifoInternalRecvInterrupt+0x120>
 2002b7c:	01e4      	lsls	r4, r4, #7
 2002b7e:	09e0      	lsrs	r0, r4, #7
 2002b80:	e767      	b.n	2002a52 <fifoInternalRecvInterrupt+0x1d2>
 2002b82:	4663      	mov	r3, ip
 2002b84:	9701      	str	r7, [sp, #4]
 2002b86:	00d0      	lsls	r0, r2, #3
 2002b88:	e7a5      	b.n	2002ad6 <fifoInternalRecvInterrupt+0x256>
 2002b8a:	00ad      	lsls	r5, r5, #2
 2002b8c:	5170      	str	r0, [r6, r5]
 2002b8e:	481a      	ldr	r0, [pc, #104]	@ (2002bf8 <fifoInternalRecvInterrupt+0x378>)
 2002b90:	000a      	movs	r2, r1
 2002b92:	1838      	adds	r0, r7, r0
 2002b94:	f7ff fc44 	bl	2002420 <fifo_queueBlock>
 2002b98:	e702      	b.n	20029a0 <fifoInternalRecvInterrupt+0x120>
 2002b9a:	00c8      	lsls	r0, r1, #3
 2002b9c:	e79b      	b.n	2002ad6 <fifoInternalRecvInterrupt+0x256>
 2002b9e:	46c0      	nop			@ (mov r8, r8)
 2002ba0:	04000004 	streq	r0, [r0], #-4
 2002ba4:	04000208 	streq	r0, [r0], #-520	@ 0xfffffdf8
 2002ba8:	04000210 	streq	r0, [r0], #-528	@ 0xfffffdf0
 2002bac:	fffbffff 			@ <UNDEFINED> instruction: 0xfffbffff
 2002bb0:	04000184 	streq	r0, [r0], #-388	@ 0xfffffe7c
 2002bb4:	02019734 	andeq	r9, r1, #52, 14	@ 0xd00000
 2002bb8:	02019740 	andeq	r9, r1, #64, 14	@ 0x1000000
 2002bbc:	0201b1cc 	andeq	fp, r1, #204, 2	@ 0x33
 2002bc0:	0000ffff 	strdeq	pc, [r0], -pc	@ <UNPREDICTABLE>
 2002bc4:	02019738 	andeq	r9, r1, #56, 14	@ 0xe00000
 2002bc8:	0201af88 	andeq	sl, r1, #136, 30	@ 0x220
 2002bcc:	0201b14c 	andeq	fp, r1, #76, 2
 2002bd0:	0201b0cc 	andeq	fp, r1, #204	@ 0xcc
 2002bd4:	0201b08c 	andeq	fp, r1, #140	@ 0x8c
 2002bd8:	0004000c 	andeq	r0, r4, ip
 2002bdc:	04000180 	streq	r0, [r0], #-384	@ 0xfffffe80
 2002be0:	0201b04c 	andeq	fp, r1, #76	@ 0x4c
 2002be4:	0201b00c 	andeq	fp, r1, #12
 2002be8:	0fff0000 	svceq	0x00ff0000
 2002bec:	0201afcc 	andeq	sl, r1, #204, 30	@ 0x330
 2002bf0:	0201af8c 	andeq	sl, r1, #140, 30	@ 0x230
 2002bf4:	0201b18c 	andeq	fp, r1, #140, 2	@ 0x23
 2002bf8:	0201b10c 	andeq	fp, r1, #12, 2

02002bfc <fifoSetDatamsgHandler>:
 2002bfc:	b5f0      	push	{r4, r5, r6, r7, lr}
 2002bfe:	46de      	mov	lr, fp
 2002c00:	4657      	mov	r7, sl
 2002c02:	4645      	mov	r5, r8
 2002c04:	464e      	mov	r6, r9
 2002c06:	b5e0      	push	{r5, r6, r7, lr}
 2002c08:	4683      	mov	fp, r0
 2002c0a:	000f      	movs	r7, r1
 2002c0c:	4690      	mov	r8, r2
 2002c0e:	b083      	sub	sp, #12
 2002c10:	280f      	cmp	r0, #15
 2002c12:	d832      	bhi.n	2002c7a <fifoSetDatamsgHandler+0x7e>
 2002c14:	4b1a      	ldr	r3, [pc, #104]	@ (2002c80 <fifoSetDatamsgHandler+0x84>)
 2002c16:	0085      	lsls	r5, r0, #2
 2002c18:	681a      	ldr	r2, [r3, #0]
 2002c1a:	9201      	str	r2, [sp, #4]
 2002c1c:	2200      	movs	r2, #0
 2002c1e:	601a      	str	r2, [r3, #0]
 2002c20:	4642      	mov	r2, r8
 2002c22:	4b18      	ldr	r3, [pc, #96]	@ (2002c84 <fifoSetDatamsgHandler+0x88>)
 2002c24:	5159      	str	r1, [r3, r5]
 2002c26:	4b18      	ldr	r3, [pc, #96]	@ (2002c88 <fifoSetDatamsgHandler+0x8c>)
 2002c28:	515a      	str	r2, [r3, r5]
 2002c2a:	2900      	cmp	r1, #0
 2002c2c:	d014      	beq.n	2002c58 <fifoSetDatamsgHandler+0x5c>
 2002c2e:	4b17      	ldr	r3, [pc, #92]	@ (2002c8c <fifoSetDatamsgHandler+0x90>)
 2002c30:	4e17      	ldr	r6, [pc, #92]	@ (2002c90 <fifoSetDatamsgHandler+0x94>)
 2002c32:	4699      	mov	r9, r3
 2002c34:	4b17      	ldr	r3, [pc, #92]	@ (2002c94 <fifoSetDatamsgHandler+0x98>)
 2002c36:	469a      	mov	sl, r3
 2002c38:	e00b      	b.n	2002c52 <fifoSetDatamsgHandler+0x56>
 2002c3a:	4652      	mov	r2, sl
 2002c3c:	5b74      	ldrh	r4, [r6, r5]
 2002c3e:	4641      	mov	r1, r8
 2002c40:	00e3      	lsls	r3, r4, #3
 2002c42:	3304      	adds	r3, #4
 2002c44:	5898      	ldr	r0, [r3, r2]
 2002c46:	01c0      	lsls	r0, r0, #7
 2002c48:	09c0      	lsrs	r0, r0, #7
 2002c4a:	47b8      	blx	r7
 2002c4c:	5b73      	ldrh	r3, [r6, r5]
 2002c4e:	429c      	cmp	r4, r3
 2002c50:	d00d      	beq.n	2002c6e <fifoSetDatamsgHandler+0x72>
 2002c52:	5b73      	ldrh	r3, [r6, r5]
 2002c54:	454b      	cmp	r3, r9
 2002c56:	d1f0      	bne.n	2002c3a <fifoSetDatamsgHandler+0x3e>
 2002c58:	2001      	movs	r0, #1
 2002c5a:	4b09      	ldr	r3, [pc, #36]	@ (2002c80 <fifoSetDatamsgHandler+0x84>)
 2002c5c:	9a01      	ldr	r2, [sp, #4]
 2002c5e:	601a      	str	r2, [r3, #0]
 2002c60:	b003      	add	sp, #12
 2002c62:	bcf0      	pop	{r4, r5, r6, r7}
 2002c64:	46bb      	mov	fp, r7
 2002c66:	46b2      	mov	sl, r6
 2002c68:	46a9      	mov	r9, r5
 2002c6a:	46a0      	mov	r8, r4
 2002c6c:	bdf0      	pop	{r4, r5, r6, r7, pc}
 2002c6e:	2200      	movs	r2, #0
 2002c70:	2100      	movs	r1, #0
 2002c72:	4658      	mov	r0, fp
 2002c74:	f7ff fd86 	bl	2002784 <fifoGetDatamsg>
 2002c78:	e7eb      	b.n	2002c52 <fifoSetDatamsgHandler+0x56>
 2002c7a:	2000      	movs	r0, #0
 2002c7c:	e7f0      	b.n	2002c60 <fifoSetDatamsgHandler+0x64>
 2002c7e:	46c0      	nop			@ (mov r8, r8)
 2002c80:	04000208 	streq	r0, [r0], #-520	@ 0xfffffdf8
 2002c84:	0201afcc 	andeq	sl, r1, #204, 30	@ 0x330
 2002c88:	0201af8c 	andeq	sl, r1, #140, 30	@ 0x230
 2002c8c:	0000ffff 	strdeq	pc, [r0], -pc	@ <UNPREDICTABLE>
 2002c90:	0201b14c 	andeq	fp, r1, #76, 2
 2002c94:	0201b1cc 	andeq	fp, r1, #204, 2	@ 0x33

02002c98 <fifoInit>:
 2002c98:	b5f0      	push	{r4, r5, r6, r7, lr}
 2002c9a:	4657      	mov	r7, sl
 2002c9c:	464e      	mov	r6, r9
 2002c9e:	4645      	mov	r5, r8
 2002ca0:	46de      	mov	lr, fp
 2002ca2:	220a      	movs	r2, #10
 2002ca4:	b5e0      	push	{r5, r6, r7, lr}
 2002ca6:	4b32      	ldr	r3, [pc, #200]	@ (2002d70 <fifoInit+0xd8>)
 2002ca8:	32ff      	adds	r2, #255	@ 0xff
 2002caa:	2001      	movs	r0, #1
 2002cac:	b085      	sub	sp, #20
 2002cae:	2400      	movs	r4, #0
 2002cb0:	801a      	strh	r2, [r3, #0]
 2002cb2:	2100      	movs	r1, #0
 2002cb4:	2200      	movs	r2, #0
 2002cb6:	4b2f      	ldr	r3, [pc, #188]	@ (2002d74 <fifoInit+0xdc>)
 2002cb8:	4d2f      	ldr	r5, [pc, #188]	@ (2002d78 <fifoInit+0xe0>)
 2002cba:	469b      	mov	fp, r3
 2002cbc:	4b2f      	ldr	r3, [pc, #188]	@ (2002d7c <fifoInit+0xe4>)
 2002cbe:	4f30      	ldr	r7, [pc, #192]	@ (2002d80 <fifoInit+0xe8>)
 2002cc0:	469a      	mov	sl, r3
 2002cc2:	4b30      	ldr	r3, [pc, #192]	@ (2002d84 <fifoInit+0xec>)
 2002cc4:	4e30      	ldr	r6, [pc, #192]	@ (2002d88 <fifoInit+0xf0>)
 2002cc6:	4699      	mov	r9, r3
 2002cc8:	4b30      	ldr	r3, [pc, #192]	@ (2002d8c <fifoInit+0xf4>)
 2002cca:	4240      	negs	r0, r0
 2002ccc:	4698      	mov	r8, r3
 2002cce:	4b30      	ldr	r3, [pc, #192]	@ (2002d90 <fifoInit+0xf8>)
 2002cd0:	9503      	str	r5, [sp, #12]
 2002cd2:	9301      	str	r3, [sp, #4]
 2002cd4:	4b2f      	ldr	r3, [pc, #188]	@ (2002d94 <fifoInit+0xfc>)
 2002cd6:	9302      	str	r3, [sp, #8]
 2002cd8:	00a3      	lsls	r3, r4, #2
 2002cda:	18fd      	adds	r5, r7, r3
 2002cdc:	52f8      	strh	r0, [r7, r3]
 2002cde:	8068      	strh	r0, [r5, #2]
 2002ce0:	18f5      	adds	r5, r6, r3
 2002ce2:	52f0      	strh	r0, [r6, r3]
 2002ce4:	8068      	strh	r0, [r5, #2]
 2002ce6:	9d03      	ldr	r5, [sp, #12]
 2002ce8:	3401      	adds	r4, #1
 2002cea:	46ac      	mov	ip, r5
 2002cec:	52e8      	strh	r0, [r5, r3]
 2002cee:	4463      	add	r3, ip
 2002cf0:	8058      	strh	r0, [r3, #2]
 2002cf2:	465b      	mov	r3, fp
 2002cf4:	189b      	adds	r3, r3, r2
 2002cf6:	6019      	str	r1, [r3, #0]
 2002cf8:	4653      	mov	r3, sl
 2002cfa:	189b      	adds	r3, r3, r2
 2002cfc:	6019      	str	r1, [r3, #0]
 2002cfe:	464b      	mov	r3, r9
 2002d00:	189b      	adds	r3, r3, r2
 2002d02:	6019      	str	r1, [r3, #0]
 2002d04:	4643      	mov	r3, r8
 2002d06:	189b      	adds	r3, r3, r2
 2002d08:	6019      	str	r1, [r3, #0]
 2002d0a:	9b01      	ldr	r3, [sp, #4]
 2002d0c:	189b      	adds	r3, r3, r2
 2002d0e:	6019      	str	r1, [r3, #0]
 2002d10:	9b02      	ldr	r3, [sp, #8]
 2002d12:	189b      	adds	r3, r3, r2
 2002d14:	6019      	str	r1, [r3, #0]
 2002d16:	3204      	adds	r2, #4
 2002d18:	2c10      	cmp	r4, #16
 2002d1a:	d1dd      	bne.n	2002cd8 <fifoInit+0x40>
 2002d1c:	2101      	movs	r1, #1
 2002d1e:	2300      	movs	r3, #0
 2002d20:	2500      	movs	r5, #0
 2002d22:	481d      	ldr	r0, [pc, #116]	@ (2002d98 <fifoInit+0x100>)
 2002d24:	005a      	lsls	r2, r3, #1
 2002d26:	008c      	lsls	r4, r1, #2
 2002d28:	3301      	adds	r3, #1
 2002d2a:	0092      	lsls	r2, r2, #2
 2002d2c:	5105      	str	r5, [r0, r4]
 2002d2e:	3102      	adds	r1, #2
 2002d30:	5083      	str	r3, [r0, r2]
 2002d32:	2bff      	cmp	r3, #255	@ 0xff
 2002d34:	d1f6      	bne.n	2002d24 <fifoInit+0x8c>
 2002d36:	23ff      	movs	r3, #255	@ 0xff
 2002d38:	4a18      	ldr	r2, [pc, #96]	@ (2002d9c <fifoInit+0x104>)
 2002d3a:	00db      	lsls	r3, r3, #3
 2002d3c:	50c2      	str	r2, [r0, r3]
 2002d3e:	2080      	movs	r0, #128	@ 0x80
 2002d40:	4917      	ldr	r1, [pc, #92]	@ (2002da0 <fifoInit+0x108>)
 2002d42:	0280      	lsls	r0, r0, #10
 2002d44:	f000 f834 	bl	2002db0 <irqSet>
 2002d48:	2080      	movs	r0, #128	@ 0x80
 2002d4a:	4916      	ldr	r1, [pc, #88]	@ (2002da4 <fifoInit+0x10c>)
 2002d4c:	02c0      	lsls	r0, r0, #11
 2002d4e:	f000 f82f 	bl	2002db0 <irqSet>
 2002d52:	20c0      	movs	r0, #192	@ 0xc0
 2002d54:	4b06      	ldr	r3, [pc, #24]	@ (2002d70 <fifoInit+0xd8>)
 2002d56:	4a14      	ldr	r2, [pc, #80]	@ (2002da8 <fifoInit+0x110>)
 2002d58:	02c0      	lsls	r0, r0, #11
 2002d5a:	801a      	strh	r2, [r3, #0]
 2002d5c:	f000 f88c 	bl	2002e78 <irqEnable>
 2002d60:	2001      	movs	r0, #1
 2002d62:	b005      	add	sp, #20
 2002d64:	bcf0      	pop	{r4, r5, r6, r7}
 2002d66:	46bb      	mov	fp, r7
 2002d68:	46b2      	mov	sl, r6
 2002d6a:	46a9      	mov	r9, r5
 2002d6c:	46a0      	mov	r8, r4
 2002d6e:	bdf0      	pop	{r4, r5, r6, r7, pc}
 2002d70:	04000184 	streq	r0, [r0], #-388	@ 0xfffffe7c
 2002d74:	0201af8c 	andeq	sl, r1, #140, 30	@ 0x230
 2002d78:	0201b10c 	andeq	fp, r1, #12, 2
 2002d7c:	0201b00c 	andeq	fp, r1, #12
 2002d80:	0201b18c 	andeq	fp, r1, #140, 2	@ 0x23
 2002d84:	0201b08c 	andeq	fp, r1, #140	@ 0x8c
 2002d88:	0201b14c 	andeq	fp, r1, #76, 2
 2002d8c:	0201b0cc 	andeq	fp, r1, #204	@ 0xcc
 2002d90:	0201b04c 	andeq	fp, r1, #76	@ 0x4c
 2002d94:	0201afcc 	andeq	sl, r1, #204, 30	@ 0x330
 2002d98:	0201b1cc 	andeq	fp, r1, #204, 2	@ 0x33
 2002d9c:	0000ffff 	strdeq	pc, [r0], -pc	@ <UNPREDICTABLE>
 2002da0:	020025a9 	andeq	r2, r0, #708837376	@ 0x2a400000
 2002da4:	02002881 	andeq	r2, r0, #8454144	@ 0x810000
 2002da8:	ffff8400 			@ <UNDEFINED> instruction: 0xffff8400

02002dac <irqDummy>:
 2002dac:	4770      	bx	lr
 2002dae:	46c0      	nop			@ (mov r8, r8)

02002db0 <irqSet>:
 2002db0:	2200      	movs	r2, #0
 2002db2:	4b18      	ldr	r3, [pc, #96]	@ (2002e14 <irqSet+0x64>)
 2002db4:	b530      	push	{r4, r5, lr}
 2002db6:	681d      	ldr	r5, [r3, #0]
 2002db8:	601a      	str	r2, [r3, #0]
 2002dba:	2800      	cmp	r0, #0
 2002dbc:	d020      	beq.n	2002e00 <irqSet+0x50>
 2002dbe:	2300      	movs	r3, #0
 2002dc0:	4a15      	ldr	r2, [pc, #84]	@ (2002e18 <irqSet+0x68>)
 2002dc2:	6814      	ldr	r4, [r2, #0]
 2002dc4:	42a0      	cmp	r0, r4
 2002dc6:	d01e      	beq.n	2002e06 <irqSet+0x56>
 2002dc8:	2c00      	cmp	r4, #0
 2002dca:	d01c      	beq.n	2002e06 <irqSet+0x56>
 2002dcc:	3301      	adds	r3, #1
 2002dce:	3208      	adds	r2, #8
 2002dd0:	2b19      	cmp	r3, #25
 2002dd2:	d1f6      	bne.n	2002dc2 <irqSet+0x12>
 2002dd4:	07c3      	lsls	r3, r0, #31
 2002dd6:	d504      	bpl.n	2002de2 <irqSet+0x32>
 2002dd8:	2108      	movs	r1, #8
 2002dda:	4a10      	ldr	r2, [pc, #64]	@ (2002e1c <irqSet+0x6c>)
 2002ddc:	8813      	ldrh	r3, [r2, #0]
 2002dde:	430b      	orrs	r3, r1
 2002de0:	8013      	strh	r3, [r2, #0]
 2002de2:	0783      	lsls	r3, r0, #30
 2002de4:	d504      	bpl.n	2002df0 <irqSet+0x40>
 2002de6:	2110      	movs	r1, #16
 2002de8:	4a0c      	ldr	r2, [pc, #48]	@ (2002e1c <irqSet+0x6c>)
 2002dea:	8813      	ldrh	r3, [r2, #0]
 2002dec:	430b      	orrs	r3, r1
 2002dee:	8013      	strh	r3, [r2, #0]
 2002df0:	03c0      	lsls	r0, r0, #15
 2002df2:	d505      	bpl.n	2002e00 <irqSet+0x50>
 2002df4:	2380      	movs	r3, #128	@ 0x80
 2002df6:	4a0a      	ldr	r2, [pc, #40]	@ (2002e20 <irqSet+0x70>)
 2002df8:	01db      	lsls	r3, r3, #7
 2002dfa:	8811      	ldrh	r1, [r2, #0]
 2002dfc:	430b      	orrs	r3, r1
 2002dfe:	8013      	strh	r3, [r2, #0]
 2002e00:	4b04      	ldr	r3, [pc, #16]	@ (2002e14 <irqSet+0x64>)
 2002e02:	601d      	str	r5, [r3, #0]
 2002e04:	bd30      	pop	{r4, r5, pc}
 2002e06:	4a07      	ldr	r2, [pc, #28]	@ (2002e24 <irqSet+0x74>)
 2002e08:	00db      	lsls	r3, r3, #3
 2002e0a:	189b      	adds	r3, r3, r2
 2002e0c:	6019      	str	r1, [r3, #0]
 2002e0e:	6058      	str	r0, [r3, #4]
 2002e10:	e7e0      	b.n	2002dd4 <irqSet+0x24>
 2002e12:	46c0      	nop			@ (mov r8, r8)
 2002e14:	04000208 	streq	r0, [r0], #-520	@ 0xfffffdf8
 2002e18:	01000104 	tsteq	r0, r4, lsl #2
 2002e1c:	04000004 	streq	r0, [r0], #-4
 2002e20:	04000180 	streq	r0, [r0], #-384	@ 0xfffffe80
 2002e24:	01000100 	mrseq	r0, (UNDEF: 16)

02002e28 <irqInit>:
 2002e28:	2300      	movs	r3, #0
 2002e2a:	4a0c      	ldr	r2, [pc, #48]	@ (2002e5c <irqInit+0x34>)
 2002e2c:	490c      	ldr	r1, [pc, #48]	@ (2002e60 <irqInit+0x38>)
 2002e2e:	6013      	str	r3, [r2, #0]
 2002e30:	4a0c      	ldr	r2, [pc, #48]	@ (2002e64 <irqInit+0x3c>)
 2002e32:	6013      	str	r3, [r2, #0]
 2002e34:	2201      	movs	r2, #1
 2002e36:	4b0c      	ldr	r3, [pc, #48]	@ (2002e68 <irqInit+0x40>)
 2002e38:	4252      	negs	r2, r2
 2002e3a:	601a      	str	r2, [r3, #0]
 2002e3c:	4b0b      	ldr	r3, [pc, #44]	@ (2002e6c <irqInit+0x44>)
 2002e3e:	4a0c      	ldr	r2, [pc, #48]	@ (2002e70 <irqInit+0x48>)
 2002e40:	601a      	str	r2, [r3, #0]
 2002e42:	4b0c      	ldr	r3, [pc, #48]	@ (2002e74 <irqInit+0x4c>)
 2002e44:	2200      	movs	r2, #0
 2002e46:	0018      	movs	r0, r3
 2002e48:	30c8      	adds	r0, #200	@ 0xc8
 2002e4a:	6019      	str	r1, [r3, #0]
 2002e4c:	605a      	str	r2, [r3, #4]
 2002e4e:	3308      	adds	r3, #8
 2002e50:	4283      	cmp	r3, r0
 2002e52:	d1fa      	bne.n	2002e4a <irqInit+0x22>
 2002e54:	2201      	movs	r2, #1
 2002e56:	4b01      	ldr	r3, [pc, #4]	@ (2002e5c <irqInit+0x34>)
 2002e58:	601a      	str	r2, [r3, #0]
 2002e5a:	4770      	bx	lr
 2002e5c:	04000208 	streq	r0, [r0], #-520	@ 0xfffffdf8
 2002e60:	02002dad 	andeq	r2, r0, #11072	@ 0x2b40
 2002e64:	04000210 	streq	r0, [r0], #-528	@ 0xfffffdf0
 2002e68:	04000214 	streq	r0, [r0], #-532	@ 0xfffffdec
 2002e6c:	02ff3ffc 	rscseq	r3, pc, #252, 30	@ 0x3f0
 2002e70:	010001c8 	smlabteq	r0, r8, r1, r0
 2002e74:	01000100 	mrseq	r0, (UNDEF: 16)

02002e78 <irqEnable>:
 2002e78:	2200      	movs	r2, #0
 2002e7a:	4b14      	ldr	r3, [pc, #80]	@ (2002ecc <irqEnable+0x54>)
 2002e7c:	b510      	push	{r4, lr}
 2002e7e:	6819      	ldr	r1, [r3, #0]
 2002e80:	601a      	str	r2, [r3, #0]
 2002e82:	07c3      	lsls	r3, r0, #31
 2002e84:	d504      	bpl.n	2002e90 <irqEnable+0x18>
 2002e86:	2408      	movs	r4, #8
 2002e88:	4a11      	ldr	r2, [pc, #68]	@ (2002ed0 <irqEnable+0x58>)
 2002e8a:	8813      	ldrh	r3, [r2, #0]
 2002e8c:	4323      	orrs	r3, r4
 2002e8e:	8013      	strh	r3, [r2, #0]
 2002e90:	0783      	lsls	r3, r0, #30
 2002e92:	d504      	bpl.n	2002e9e <irqEnable+0x26>
 2002e94:	2410      	movs	r4, #16
 2002e96:	4a0e      	ldr	r2, [pc, #56]	@ (2002ed0 <irqEnable+0x58>)
 2002e98:	8813      	ldrh	r3, [r2, #0]
 2002e9a:	4323      	orrs	r3, r4
 2002e9c:	8013      	strh	r3, [r2, #0]
 2002e9e:	0743      	lsls	r3, r0, #29
 2002ea0:	d504      	bpl.n	2002eac <irqEnable+0x34>
 2002ea2:	2420      	movs	r4, #32
 2002ea4:	4a0a      	ldr	r2, [pc, #40]	@ (2002ed0 <irqEnable+0x58>)
 2002ea6:	8813      	ldrh	r3, [r2, #0]
 2002ea8:	4323      	orrs	r3, r4
 2002eaa:	8013      	strh	r3, [r2, #0]
 2002eac:	03c3      	lsls	r3, r0, #15
 2002eae:	d505      	bpl.n	2002ebc <irqEnable+0x44>
 2002eb0:	2380      	movs	r3, #128	@ 0x80
 2002eb2:	4a08      	ldr	r2, [pc, #32]	@ (2002ed4 <irqEnable+0x5c>)
 2002eb4:	01db      	lsls	r3, r3, #7
 2002eb6:	8814      	ldrh	r4, [r2, #0]
 2002eb8:	4323      	orrs	r3, r4
 2002eba:	8013      	strh	r3, [r2, #0]
 2002ebc:	4a06      	ldr	r2, [pc, #24]	@ (2002ed8 <irqEnable+0x60>)
 2002ebe:	6813      	ldr	r3, [r2, #0]
 2002ec0:	4303      	orrs	r3, r0
 2002ec2:	6013      	str	r3, [r2, #0]
 2002ec4:	4b01      	ldr	r3, [pc, #4]	@ (2002ecc <irqEnable+0x54>)
 2002ec6:	6019      	str	r1, [r3, #0]
 2002ec8:	bd10      	pop	{r4, pc}
 2002eca:	46c0      	nop			@ (mov r8, r8)
 2002ecc:	04000208 	streq	r0, [r0], #-520	@ 0xfffffdf8
 2002ed0:	04000004 	streq	r0, [r0], #-4
 2002ed4:	04000180 	streq	r0, [r0], #-384	@ 0xfffffe80
 2002ed8:	04000210 	streq	r0, [r0], #-528	@ 0xfffffdf0

02002edc <systemErrorExit>:
 2002edc:	e12fff1e 	bx	lr

02002ee0 <__libnds_exit>:
 2002ee0:	e3500000 	cmp	r0, #0
 2002ee4:	e92d4010 	push	{r4, lr}
 2002ee8:	1a00000e 	bne	2002f28 <__libnds_exit+0x48>
 2002eec:	e59f303c 	ldr	r3, [pc, #60]	@ 2002f30 <__libnds_exit+0x50>
 2002ef0:	e59f003c 	ldr	r0, [pc, #60]	@ 2002f34 <__libnds_exit+0x54>
 2002ef4:	e51330e7 	ldr	r3, [r3, #-231]	@ 0xffffff19
 2002ef8:	e59f2038 	ldr	r2, [pc, #56]	@ 2002f38 <__libnds_exit+0x58>
 2002efc:	e593c000 	ldr	ip, [r3]
 2002f00:	e5931004 	ldr	r1, [r3, #4]
 2002f04:	e1510002 	cmp	r1, r2
 2002f08:	015c0000 	cmpeq	ip, r0
 2002f0c:	1a000002 	bne	2002f1c <__libnds_exit+0x3c>
 2002f10:	e5933008 	ldr	r3, [r3, #8]
 2002f14:	e12fff33 	blx	r3
 2002f18:	eafffffe 	b	2002f18 <__libnds_exit+0x38>
 2002f1c:	e3a00040 	mov	r0, #64	@ 0x40
 2002f20:	eb00417f 	bl	2013524 <__powerOn_from_arm>
 2002f24:	eafffffb 	b	2002f18 <__libnds_exit+0x38>
 2002f28:	ebffffeb 	bl	2002edc <systemErrorExit>
 2002f2c:	eaffffee 	b	2002eec <__libnds_exit+0xc>
 2002f30:	02fff0ff 	rscseq	pc, pc, #255	@ 0xff
 2002f34:	746f6f62 	strbtvc	r6, [pc], #-3938	@ 2002f3c <setCpuClock>
 2002f38:	62757473 	rsbsvs	r7, r5, #1929379840	@ 0x73000000

02002f3c <setCpuClock>:
 2002f3c:	e3a0c301 	mov	ip, #67108864	@ 0x4000000
 2002f40:	e5dc3208 	ldrb	r3, [ip, #520]	@ 0x208
 2002f44:	e5ccc208 	strb	ip, [ip, #520]	@ 0x208
 2002f48:	e52d3004 	push	{r3}		@ (str r3, [sp, #-4]!)
 2002f4c:	e3500000 	cmp	r0, #0
 2002f50:	e59f3030 	ldr	r3, [pc, #48]	@ 2002f88 <restoreIrq+0xc>
 2002f54:	e1d300b0 	ldrh	r0, [r3]
 2002f58:	e3a02008 	mov	r2, #8
 2002f5c:	03c01001 	biceq	r1, r0, #1
 2002f60:	13801001 	orrne	r1, r0, #1
 2002f64:	e1510000 	cmp	r1, r0
 2002f68:	e2000001 	and	r0, r0, #1
 2002f6c:	0a000002 	beq	2002f7c <restoreIrq>
 2002f70:	e1c310b0 	strh	r1, [r3]
 2002f74:	e2522001 	subs	r2, r2, #1
 2002f78:	aafffffd 	bge	2002f74 <setCpuClock+0x38>

02002f7c <restoreIrq>:
 2002f7c:	e49d3004 	pop	{r3}		@ (ldr r3, [sp], #4)
 2002f80:	e5cc3208 	strb	r3, [ip, #520]	@ 0x208
 2002f84:	e12fff1e 	bx	lr
 2002f88:	04004004 	streq	r4, [r0], #-4

02002f8c <swiWaitForVBlank>:
 2002f8c:	e3a00001 	mov	r0, #1
 2002f90:	e3a01001 	mov	r1, #1

02002f94 <swiIntrWait>:
 2002f94:	e52de004 	push	{lr}		@ (str lr, [sp, #-4]!)
 2002f98:	e3a0c301 	mov	ip, #67108864	@ 0x4000000
 2002f9c:	e58cc208 	str	ip, [ip, #520]	@ 0x208
 2002fa0:	ee193f11 	mrc	15, 0, r3, cr9, cr1, {0}
 2002fa4:	e1a03623 	lsr	r3, r3, #12
 2002fa8:	e1a03603 	lsl	r3, r3, #12
 2002fac:	e2833901 	add	r3, r3, #16384	@ 0x4000
 2002fb0:	e1a0c000 	mov	ip, r0
 2002fb4:	eb00000d 	bl	2002ff0 <check_flags>
 2002fb8:	0a000001 	beq	2002fc4 <wait>
 2002fbc:	e35c0000 	cmp	ip, #0
 2002fc0:	0a000007 	beq	2002fe4 <flag_set>

02002fc4 <wait>:
 2002fc4:	e3a0c301 	mov	ip, #67108864	@ 0x4000000

02002fc8 <wait_flags>:
 2002fc8:	e3a02001 	mov	r2, #1
 2002fcc:	e58c2208 	str	r2, [ip, #520]	@ 0x208
 2002fd0:	e3a00000 	mov	r0, #0
 2002fd4:	ee070f90 	mcr	15, 0, r0, cr7, cr0, {4}
 2002fd8:	e58cc208 	str	ip, [ip, #520]	@ 0x208
 2002fdc:	eb000003 	bl	2002ff0 <check_flags>
 2002fe0:	0afffff8 	beq	2002fc8 <wait_flags>

02002fe4 <flag_set>:
 2002fe4:	e3a02001 	mov	r2, #1
 2002fe8:	e58c2208 	str	r2, [ip, #520]	@ 0x208
 2002fec:	e49df004 	pop	{pc}		@ (ldr pc, [sp], #4)

02002ff0 <check_flags>:
 2002ff0:	e5132008 	ldr	r2, [r3, #-8]
 2002ff4:	e0110002 	ands	r0, r1, r2
 2002ff8:	10222000 	eorne	r2, r2, r0
 2002ffc:	15032008 	strne	r2, [r3, #-8]
 2003000:	e12fff1e 	bx	lr

02003004 <__libnds_mpu_setup>:
 2003004:	e59f1118 	ldr	r1, [pc, #280]	@ 2003124 <setregions+0x48>
 2003008:	e3a00301 	mov	r0, #67108864	@ 0x4000000
 200300c:	e2800fc1 	add	r0, r0, #772	@ 0x304
 2003010:	e1c010b0 	strh	r1, [r0]
 2003014:	e59f110c 	ldr	r1, [pc, #268]	@ 2003128 <setregions+0x4c>
 2003018:	ee011f10 	mcr	15, 0, r1, cr1, cr0, {0}
 200301c:	e3a00000 	mov	r0, #0
 2003020:	ee070f15 	mcr	15, 0, r0, cr7, cr5, {0}
 2003024:	ee070f16 	mcr	15, 0, r0, cr7, cr6, {0}
 2003028:	ee070f9a 	mcr	15, 0, r0, cr7, cr10, {4}
 200302c:	e59f00f8 	ldr	r0, [pc, #248]	@ 200312c <setregions+0x50>
 2003030:	e380000a 	orr	r0, r0, #10
 2003034:	ee090f11 	mcr	15, 0, r0, cr9, cr1, {0}
 2003038:	e3a00020 	mov	r0, #32
 200303c:	ee090f31 	mcr	15, 0, r0, cr9, cr1, {1}
 2003040:	e59f00e8 	ldr	r0, [pc, #232]	@ 2003130 <setregions+0x54>
 2003044:	ee060f10 	mcr	15, 0, r0, cr6, cr0, {0}
 2003048:	e59f00e4 	ldr	r0, [pc, #228]	@ 2003134 <setregions+0x58>
 200304c:	ee060f11 	mcr	15, 0, r0, cr6, cr1, {0}
 2003050:	e3a00017 	mov	r0, #23
 2003054:	ee060f12 	mcr	15, 0, r0, cr6, cr2, {0}
 2003058:	e59f00cc 	ldr	r0, [pc, #204]	@ 200312c <setregions+0x50>
 200305c:	e380001b 	orr	r0, r0, #27
 2003060:	ee060f15 	mcr	15, 0, r0, cr6, cr5, {0}
 2003064:	e59f00cc 	ldr	r0, [pc, #204]	@ 2003138 <setregions+0x5c>
 2003068:	e1a007a0 	lsr	r0, r0, #15
 200306c:	e1a00780 	lsl	r0, r0, #15
 2003070:	e380001d 	orr	r0, r0, #29
 2003074:	ee060f14 	mcr	15, 0, r0, cr6, cr4, {0}
 2003078:	e59f00bc 	ldr	r0, [pc, #188]	@ 200313c <setregions+0x60>
 200307c:	e5900000 	ldr	r0, [r0]
 2003080:	e3100902 	tst	r0, #32768	@ 0x8000
 2003084:	1a00000d 	bne	20030c0 <dsi_mode>
 2003088:	ef0f0000 	svc	0x000f0000
 200308c:	e59f10ac 	ldr	r1, [pc, #172]	@ 2003140 <setregions+0x64>
 2003090:	e3500000 	cmp	r0, #0
 2003094:	1a000004 	bne	20030ac <debug_mode>
 2003098:	e59f30a4 	ldr	r3, [pc, #164]	@ 2003144 <setregions+0x68>
 200309c:	e59f20a4 	ldr	r2, [pc, #164]	@ 2003148 <setregions+0x6c>
 20030a0:	e3a08509 	mov	r8, #37748736	@ 0x2400000
 20030a4:	e59f90a0 	ldr	r9, [pc, #160]	@ 200314c <setregions+0x70>
 20030a8:	ea00000b 	b	20030dc <setregions>

020030ac <debug_mode>:
 20030ac:	e59f309c 	ldr	r3, [pc, #156]	@ 2003150 <setregions+0x74>
 20030b0:	e59f209c 	ldr	r2, [pc, #156]	@ 2003154 <setregions+0x78>
 20030b4:	e3a0850a 	mov	r8, #41943040	@ 0x2800000
 20030b8:	e59f9098 	ldr	r9, [pc, #152]	@ 2003158 <setregions+0x7c>
 20030bc:	ea000006 	b	20030dc <setregions>

020030c0 <dsi_mode>:
 20030c0:	e3100901 	tst	r0, #16384	@ 0x4000
 20030c4:	e59f1090 	ldr	r1, [pc, #144]	@ 200315c <setregions+0x80>
 20030c8:	e59f3078 	ldr	r3, [pc, #120]	@ 2003148 <setregions+0x6c>
 20030cc:	059f208c 	ldreq	r2, [pc, #140]	@ 2003160 <setregions+0x84>
 20030d0:	159f208c 	ldrne	r2, [pc, #140]	@ 2003164 <setregions+0x88>
 20030d4:	e3a08403 	mov	r8, #50331648	@ 0x3000000
 20030d8:	e59f9088 	ldr	r9, [pc, #136]	@ 2003168 <setregions+0x8c>

020030dc <setregions>:
 20030dc:	ee061f13 	mcr	15, 0, r1, cr6, cr3, {0}
 20030e0:	ee062f16 	mcr	15, 0, r2, cr6, cr6, {0}
 20030e4:	ee063f17 	mcr	15, 0, r3, cr6, cr7, {0}
 20030e8:	e3a00080 	mov	r0, #128	@ 0x80
 20030ec:	ee030f10 	mcr	15, 0, r0, cr3, cr0, {0}
 20030f0:	e3a00082 	mov	r0, #130	@ 0x82
 20030f4:	ee020f10 	mcr	15, 0, r0, cr2, cr0, {0}
 20030f8:	ee020f30 	mcr	15, 0, r0, cr2, cr0, {1}
 20030fc:	e59f0068 	ldr	r0, [pc, #104]	@ 200316c <setregions+0x90>
 2003100:	ee050f70 	mcr	15, 0, r0, cr5, cr0, {3}
 2003104:	ee050f50 	mcr	15, 0, r0, cr5, cr0, {2}
 2003108:	ee110f10 	mrc	15, 0, r0, cr1, cr0, {0}
 200310c:	e59f105c 	ldr	r1, [pc, #92]	@ 2003170 <setregions+0x94>
 2003110:	e1800001 	orr	r0, r0, r1
 2003114:	ee010f10 	mcr	15, 0, r0, cr1, cr0, {0}
 2003118:	e59f0054 	ldr	r0, [pc, #84]	@ 2003174 <setregions+0x98>
 200311c:	e5809000 	str	r9, [r0]
 2003120:	e12fff1e 	bx	lr
 2003124:	00008203 	andeq	r8, r0, r3, lsl #4
 2003128:	00002078 	andeq	r2, r0, r8, ror r0
 200312c:	02ff0000 	rscseq	r0, pc, #0
 2003130:	04000033 	streq	r0, [r0], #-51	@ 0xffffffcd
 2003134:	ffff001f 			@ <UNDEFINED> instruction: 0xffff001f
 2003138:	01000100 	mrseq	r0, (UNDEF: 16)
 200313c:	04004008 	streq	r4, [r0], #-8
 2003140:	08000035 	stmdaeq	r0, {r0, r2, r4, r5}
 2003144:	0200002b 	andeq	r0, r0, #43	@ 0x2b
 2003148:	0200002f 	andeq	r0, r0, #47	@ 0x2f
 200314c:	020196a8 	andeq	r9, r1, #168, 12	@ 0xa800000
 2003150:	0200002d 	andeq	r0, r0, #45	@ 0x2d
 2003154:	0280002d 	addeq	r0, r0, #45	@ 0x2d
 2003158:	020196b4 	andeq	r9, r1, #180, 12	@ 0xb400000
 200315c:	0300002d 	movweq	r0, #45	@ 0x2d
 2003160:	0c00002f 	stceq	0, cr0, [r0], {47}	@ 0x2f
 2003164:	0c000031 	stceq	0, cr0, [r0], {49}	@ 0x31
 2003168:	020196c0 	andeq	r9, r1, #192, 12	@ 0xc000000
 200316c:	33333363 	teqcc	r3, #-1946157055	@ 0x8c000001
 2003170:	00051005 	andeq	r1, r5, r5
 2003174:	020196cc 	andeq	r9, r1, #204, 12	@ 0xcc00000

02003178 <memUncached>:
 2003178:	e59f1014 	ldr	r1, [pc, #20]	@ 2003194 <memUncached+0x1c>
 200317c:	e5911000 	ldr	r1, [r1]
 2003180:	e4912008 	ldr	r2, [r1], #8
 2003184:	e0000002 	and	r0, r0, r2
 2003188:	e5912000 	ldr	r2, [r1]
 200318c:	e1800002 	orr	r0, r0, r2
 2003190:	e12fff1e 	bx	lr
 2003194:	020196cc 	andeq	r9, r1, #204, 12	@ 0xcc00000

02003198 <swiDelay>:
 2003198:	df03      	svc	3
 200319a:	4770      	bx	lr

0200319c <swiSoftReset>:
 200319c:	e59f101c 	ldr	r1, [pc, #28]	@ 20031c0 <swiSoftReset+0x24>
 20031a0:	ee011f10 	mcr	15, 0, r1, cr1, cr0, {0}
 20031a4:	e3a00000 	mov	r0, #0
 20031a8:	ee070f15 	mcr	15, 0, r0, cr7, cr5, {0}
 20031ac:	ee070f16 	mcr	15, 0, r0, cr7, cr6, {0}
 20031b0:	ee070f9a 	mcr	15, 0, r0, cr7, cr10, {4}
 20031b4:	e59f0008 	ldr	r0, [pc, #8]	@ 20031c4 <swiSoftReset+0x28>
 20031b8:	e5900000 	ldr	r0, [r0]
 20031bc:	e12fff10 	bx	r0
 20031c0:	00002078 	andeq	r2, r0, r8, ror r0
 20031c4:	02fffe24 	rscseq	pc, pc, #36, 28	@ 0x240

020031c8 <checkIfText>:
 20031c8:	0003      	movs	r3, r0
 20031ca:	1f02      	subs	r2, r0, #4
 20031cc:	2100      	movs	r1, #0
 20031ce:	2001      	movs	r0, #1
 20031d0:	b510      	push	{r4, lr}
 20031d2:	2400      	movs	r4, #0
 20031d4:	4290      	cmp	r0, r2
 20031d6:	4161      	adcs	r1, r4
 20031d8:	000a      	movs	r2, r1
 20031da:	0fd9      	lsrs	r1, r3, #31
 20031dc:	4298      	cmp	r0, r3
 20031de:	4161      	adcs	r1, r4
 20031e0:	430a      	orrs	r2, r1
 20031e2:	0612      	lsls	r2, r2, #24
 20031e4:	0e10      	lsrs	r0, r2, #24
 20031e6:	2a00      	cmp	r2, #0
 20031e8:	d10d      	bne.n	2003206 <checkIfText+0x3e>
 20031ea:	2b03      	cmp	r3, #3
 20031ec:	dd0c      	ble.n	2003208 <checkIfText+0x40>
 20031ee:	4a0f      	ldr	r2, [pc, #60]	@ (200322c <checkIfText+0x64>)
 20031f0:	490f      	ldr	r1, [pc, #60]	@ (2003230 <checkIfText+0x68>)
 20031f2:	6812      	ldr	r2, [r2, #0]
 20031f4:	400a      	ands	r2, r1
 20031f6:	0612      	lsls	r2, r2, #24
 20031f8:	0e11      	lsrs	r1, r2, #24
 20031fa:	2a00      	cmp	r2, #0
 20031fc:	d00d      	beq.n	200321a <checkIfText+0x52>
 20031fe:	2202      	movs	r2, #2
 2003200:	4391      	bics	r1, r2
 2003202:	2901      	cmp	r1, #1
 2003204:	d00b      	beq.n	200321e <checkIfText+0x56>
 2003206:	bd10      	pop	{r4, pc}
 2003208:	2280      	movs	r2, #128	@ 0x80
 200320a:	04d2      	lsls	r2, r2, #19
 200320c:	4908      	ldr	r1, [pc, #32]	@ (2003230 <checkIfText+0x68>)
 200320e:	6812      	ldr	r2, [r2, #0]
 2003210:	400a      	ands	r2, r1
 2003212:	0612      	lsls	r2, r2, #24
 2003214:	0e11      	lsrs	r1, r2, #24
 2003216:	2a00      	cmp	r2, #0
 2003218:	d1f1      	bne.n	20031fe <checkIfText+0x36>
 200321a:	2001      	movs	r0, #1
 200321c:	e7f3      	b.n	2003206 <checkIfText+0x3e>
 200321e:	3202      	adds	r2, #2
 2003220:	4393      	bics	r3, r2
 2003222:	3b03      	subs	r3, #3
 2003224:	0018      	movs	r0, r3
 2003226:	1e43      	subs	r3, r0, #1
 2003228:	4198      	sbcs	r0, r3
 200322a:	e7ec      	b.n	2003206 <checkIfText+0x3e>
 200322c:	04001000 	streq	r1, [r0], #-0
 2003230:	00030007 	andeq	r0, r3, r7

02003234 <bgUpdate>:
 2003234:	4b38      	ldr	r3, [pc, #224]	@ (2003318 <bgUpdate+0xe4>)
 2003236:	b5f0      	push	{r4, r5, r6, r7, lr}
 2003238:	4645      	mov	r5, r8
 200323a:	4698      	mov	r8, r3
 200323c:	23a0      	movs	r3, #160	@ 0xa0
 200323e:	4657      	mov	r7, sl
 2003240:	464e      	mov	r6, r9
 2003242:	46de      	mov	lr, fp
 2003244:	005b      	lsls	r3, r3, #1
 2003246:	469a      	mov	sl, r3
 2003248:	3b1d      	subs	r3, #29
 200324a:	3bff      	subs	r3, #255	@ 0xff
 200324c:	4699      	mov	r9, r3
 200324e:	2300      	movs	r3, #0
 2003250:	b5e0      	push	{r5, r6, r7, lr}
 2003252:	4c32      	ldr	r4, [pc, #200]	@ (200331c <bgUpdate+0xe8>)
 2003254:	469b      	mov	fp, r3
 2003256:	4f32      	ldr	r7, [pc, #200]	@ (2003320 <bgUpdate+0xec>)
 2003258:	4e32      	ldr	r6, [pc, #200]	@ (2003324 <bgUpdate+0xf0>)
 200325a:	b085      	sub	sp, #20
 200325c:	44a2      	add	sl, r4
 200325e:	e011      	b.n	2003284 <bgUpdate+0x50>
 2003260:	6963      	ldr	r3, [r4, #20]
 2003262:	683a      	ldr	r2, [r7, #0]
 2003264:	121b      	asrs	r3, r3, #8
 2003266:	8013      	strh	r3, [r2, #0]
 2003268:	69a3      	ldr	r3, [r4, #24]
 200326a:	121b      	asrs	r3, r3, #8
 200326c:	8053      	strh	r3, [r2, #2]
 200326e:	464b      	mov	r3, r9
 2003270:	465a      	mov	r2, fp
 2003272:	54e2      	strb	r2, [r4, r3]
 2003274:	2304      	movs	r3, #4
 2003276:	469c      	mov	ip, r3
 2003278:	3428      	adds	r4, #40	@ 0x28
 200327a:	3704      	adds	r7, #4
 200327c:	44e0      	add	r8, ip
 200327e:	3601      	adds	r6, #1
 2003280:	4554      	cmp	r4, sl
 2003282:	d042      	beq.n	200330a <bgUpdate+0xd6>
 2003284:	464b      	mov	r3, r9
 2003286:	5ce3      	ldrb	r3, [r4, r3]
 2003288:	2b00      	cmp	r3, #0
 200328a:	d0f3      	beq.n	2003274 <bgUpdate+0x40>
 200328c:	7833      	ldrb	r3, [r6, #0]
 200328e:	2b00      	cmp	r3, #0
 2003290:	d1e6      	bne.n	2003260 <bgUpdate+0x2c>
 2003292:	2300      	movs	r3, #0
 2003294:	5ee0      	ldrsh	r0, [r4, r3]
 2003296:	f000 f983 	bl	20035a0 <sinLerp>
 200329a:	0005      	movs	r5, r0
 200329c:	2300      	movs	r3, #0
 200329e:	5ee0      	ldrsh	r0, [r4, r3]
 20032a0:	f000 f99a 	bl	20035d8 <cosLerp>
 20032a4:	0001      	movs	r1, r0
 20032a6:	68e2      	ldr	r2, [r4, #12]
 20032a8:	0013      	movs	r3, r2
 20032aa:	4343      	muls	r3, r0
 20032ac:	4268      	negs	r0, r5
 20032ae:	4342      	muls	r2, r0
 20032b0:	1310      	asrs	r0, r2, #12
 20032b2:	9002      	str	r0, [sp, #8]
 20032b4:	6920      	ldr	r0, [r4, #16]
 20032b6:	131b      	asrs	r3, r3, #12
 20032b8:	4345      	muls	r5, r0
 20032ba:	4348      	muls	r0, r1
 20032bc:	1302      	asrs	r2, r0, #12
 20032be:	9203      	str	r2, [sp, #12]
 20032c0:	4642      	mov	r2, r8
 20032c2:	6811      	ldr	r1, [r2, #0]
 20032c4:	9a03      	ldr	r2, [sp, #12]
 20032c6:	9802      	ldr	r0, [sp, #8]
 20032c8:	80ca      	strh	r2, [r1, #6]
 20032ca:	6862      	ldr	r2, [r4, #4]
 20032cc:	8048      	strh	r0, [r1, #2]
 20032ce:	4694      	mov	ip, r2
 20032d0:	68a2      	ldr	r2, [r4, #8]
 20032d2:	800b      	strh	r3, [r1, #0]
 20032d4:	0010      	movs	r0, r2
 20032d6:	001a      	movs	r2, r3
 20032d8:	4663      	mov	r3, ip
 20032da:	4353      	muls	r3, r2
 20032dc:	0002      	movs	r2, r0
 20032de:	9001      	str	r0, [sp, #4]
 20032e0:	9802      	ldr	r0, [sp, #8]
 20032e2:	132d      	asrs	r5, r5, #12
 20032e4:	4350      	muls	r0, r2
 20032e6:	6962      	ldr	r2, [r4, #20]
 20032e8:	181b      	adds	r3, r3, r0
 20032ea:	121b      	asrs	r3, r3, #8
 20032ec:	1ad2      	subs	r2, r2, r3
 20032ee:	002b      	movs	r3, r5
 20032f0:	608a      	str	r2, [r1, #8]
 20032f2:	808d      	strh	r5, [r1, #4]
 20032f4:	9a01      	ldr	r2, [sp, #4]
 20032f6:	4665      	mov	r5, ip
 20032f8:	435d      	muls	r5, r3
 20032fa:	9b03      	ldr	r3, [sp, #12]
 20032fc:	4353      	muls	r3, r2
 20032fe:	18ed      	adds	r5, r5, r3
 2003300:	69a3      	ldr	r3, [r4, #24]
 2003302:	122d      	asrs	r5, r5, #8
 2003304:	1b5b      	subs	r3, r3, r5
 2003306:	60cb      	str	r3, [r1, #12]
 2003308:	e7b1      	b.n	200326e <bgUpdate+0x3a>
 200330a:	b005      	add	sp, #20
 200330c:	bcf0      	pop	{r4, r5, r6, r7}
 200330e:	46bb      	mov	fp, r7
 2003310:	46b2      	mov	sl, r6
 2003312:	46a9      	mov	r9, r5
 2003314:	46a0      	mov	r8, r4
 2003316:	bdf0      	pop	{r4, r5, r6, r7, pc}
 2003318:	02019744 	andeq	r9, r1, #68, 14	@ 0x1100000
 200331c:	0201b9d4 	andeq	fp, r1, #212, 18	@ 0x350000
 2003320:	02019764 	andeq	r9, r1, #100, 14	@ 0x1900000
 2003324:	0201b9cc 	andeq	fp, r1, #204, 18	@ 0x330000

02003328 <bgInit_call>:
 2003328:	b5f0      	push	{r4, r5, r6, r7, lr}
 200332a:	46d6      	mov	lr, sl
 200332c:	464f      	mov	r7, r9
 200332e:	4646      	mov	r6, r8
 2003330:	000d      	movs	r5, r1
 2003332:	b5c0      	push	{r6, r7, lr}
 2003334:	0016      	movs	r6, r2
 2003336:	4a25      	ldr	r2, [pc, #148]	@ (20033cc <bgInit_call+0xa4>)
 2003338:	b082      	sub	sp, #8
 200333a:	4694      	mov	ip, r2
 200333c:	9a0a      	ldr	r2, [sp, #40]	@ 0x28
 200333e:	021b      	lsls	r3, r3, #8
 2003340:	0092      	lsls	r2, r2, #2
 2003342:	4313      	orrs	r3, r2
 2003344:	426a      	negs	r2, r5
 2003346:	416a      	adcs	r2, r5
 2003348:	01d2      	lsls	r2, r2, #7
 200334a:	4332      	orrs	r2, r6
 200334c:	4313      	orrs	r3, r2
 200334e:	0041      	lsls	r1, r0, #1
 2003350:	041b      	lsls	r3, r3, #16
 2003352:	4461      	add	r1, ip
 2003354:	0c1b      	lsrs	r3, r3, #16
 2003356:	800b      	strh	r3, [r1, #0]
 2003358:	0083      	lsls	r3, r0, #2
 200335a:	4f1d      	ldr	r7, [pc, #116]	@ (20033d0 <bgInit_call+0xa8>)
 200335c:	4698      	mov	r8, r3
 200335e:	181b      	adds	r3, r3, r0
 2003360:	00db      	lsls	r3, r3, #3
 2003362:	4699      	mov	r9, r3
 2003364:	46ba      	mov	sl, r7
 2003366:	0004      	movs	r4, r0
 2003368:	44ca      	add	sl, r9
 200336a:	2228      	movs	r2, #40	@ 0x28
 200336c:	2100      	movs	r1, #0
 200336e:	4650      	mov	r0, sl
 2003370:	f010 f8cc 	bl	201350c <__memset_from_thumb>
 2003374:	0020      	movs	r0, r4
 2003376:	f7ff ff27 	bl	20031c8 <checkIfText>
 200337a:	4b16      	ldr	r3, [pc, #88]	@ (20033d4 <bgInit_call+0xac>)
 200337c:	5518      	strb	r0, [r3, r4]
 200337e:	2d01      	cmp	r5, #1
 2003380:	d907      	bls.n	2003392 <bgInit_call+0x6a>
 2003382:	2380      	movs	r3, #128	@ 0x80
 2003384:	4652      	mov	r2, sl
 2003386:	005b      	lsls	r3, r3, #1
 2003388:	60d3      	str	r3, [r2, #12]
 200338a:	6113      	str	r3, [r2, #16]
 200338c:	2300      	movs	r3, #0
 200338e:	464a      	mov	r2, r9
 2003390:	50bb      	str	r3, [r7, r2]
 2003392:	4643      	mov	r3, r8
 2003394:	2101      	movs	r1, #1
 2003396:	191b      	adds	r3, r3, r4
 2003398:	00db      	lsls	r3, r3, #3
 200339a:	18fb      	adds	r3, r7, r3
 200339c:	0022      	movs	r2, r4
 200339e:	61de      	str	r6, [r3, #28]
 20033a0:	000e      	movs	r6, r1
 20033a2:	3208      	adds	r2, #8
 20033a4:	4096      	lsls	r6, r2
 20033a6:	2080      	movs	r0, #128	@ 0x80
 20033a8:	0032      	movs	r2, r6
 20033aa:	04c0      	lsls	r0, r0, #19
 20033ac:	621d      	str	r5, [r3, #32]
 20033ae:	6805      	ldr	r5, [r0, #0]
 20033b0:	3324      	adds	r3, #36	@ 0x24
 20033b2:	432a      	orrs	r2, r5
 20033b4:	6002      	str	r2, [r0, #0]
 20033b6:	7019      	strb	r1, [r3, #0]
 20033b8:	f7ff ff3c 	bl	2003234 <bgUpdate>
 20033bc:	0020      	movs	r0, r4
 20033be:	b002      	add	sp, #8
 20033c0:	bce0      	pop	{r5, r6, r7}
 20033c2:	46ba      	mov	sl, r7
 20033c4:	46b1      	mov	r9, r6
 20033c6:	46a8      	mov	r8, r5
 20033c8:	bdf0      	pop	{r4, r5, r6, r7, pc}
 20033ca:	46c0      	nop			@ (mov r8, r8)
 20033cc:	04000008 	streq	r0, [r0], #-8
 20033d0:	0201b9d4 	andeq	fp, r1, #212, 18	@ 0x350000
 20033d4:	0201b9cc 	andeq	fp, r1, #204, 18	@ 0x330000

020033d8 <bgInitSub_call>:
 20033d8:	b5f0      	push	{r4, r5, r6, r7, lr}
 20033da:	46de      	mov	lr, fp
 20033dc:	4657      	mov	r7, sl
 20033de:	464e      	mov	r6, r9
 20033e0:	4645      	mov	r5, r8
 20033e2:	b5e0      	push	{r5, r6, r7, lr}
 20033e4:	000d      	movs	r5, r1
 20033e6:	0016      	movs	r6, r2
 20033e8:	4a25      	ldr	r2, [pc, #148]	@ (2003480 <bgInitSub_call+0xa8>)
 20033ea:	b083      	sub	sp, #12
 20033ec:	4694      	mov	ip, r2
 20033ee:	9a0c      	ldr	r2, [sp, #48]	@ 0x30
 20033f0:	021b      	lsls	r3, r3, #8
 20033f2:	0092      	lsls	r2, r2, #2
 20033f4:	4313      	orrs	r3, r2
 20033f6:	426a      	negs	r2, r5
 20033f8:	416a      	adcs	r2, r5
 20033fa:	01d2      	lsls	r2, r2, #7
 20033fc:	4332      	orrs	r2, r6
 20033fe:	4313      	orrs	r3, r2
 2003400:	0041      	lsls	r1, r0, #1
 2003402:	041b      	lsls	r3, r3, #16
 2003404:	4461      	add	r1, ip
 2003406:	0c1b      	lsrs	r3, r3, #16
 2003408:	800b      	strh	r3, [r1, #0]
 200340a:	1d03      	adds	r3, r0, #4
 200340c:	4698      	mov	r8, r3
 200340e:	009b      	lsls	r3, r3, #2
 2003410:	4f1c      	ldr	r7, [pc, #112]	@ (2003484 <bgInitSub_call+0xac>)
 2003412:	4699      	mov	r9, r3
 2003414:	4443      	add	r3, r8
 2003416:	00db      	lsls	r3, r3, #3
 2003418:	469a      	mov	sl, r3
 200341a:	46bb      	mov	fp, r7
 200341c:	44d3      	add	fp, sl
 200341e:	2228      	movs	r2, #40	@ 0x28
 2003420:	2100      	movs	r1, #0
 2003422:	0004      	movs	r4, r0
 2003424:	4658      	mov	r0, fp
 2003426:	f010 f871 	bl	201350c <__memset_from_thumb>
 200342a:	4640      	mov	r0, r8
 200342c:	f7ff fecc 	bl	20031c8 <checkIfText>
 2003430:	4642      	mov	r2, r8
 2003432:	4b15      	ldr	r3, [pc, #84]	@ (2003488 <bgInitSub_call+0xb0>)
 2003434:	5498      	strb	r0, [r3, r2]
 2003436:	2d01      	cmp	r5, #1
 2003438:	d907      	bls.n	200344a <bgInitSub_call+0x72>
 200343a:	2380      	movs	r3, #128	@ 0x80
 200343c:	465a      	mov	r2, fp
 200343e:	005b      	lsls	r3, r3, #1
 2003440:	60d3      	str	r3, [r2, #12]
 2003442:	6113      	str	r3, [r2, #16]
 2003444:	2300      	movs	r3, #0
 2003446:	4652      	mov	r2, sl
 2003448:	50bb      	str	r3, [r7, r2]
 200344a:	2101      	movs	r1, #1
 200344c:	000a      	movs	r2, r1
 200344e:	464b      	mov	r3, r9
 2003450:	3408      	adds	r4, #8
 2003452:	40a2      	lsls	r2, r4
 2003454:	4443      	add	r3, r8
 2003456:	480d      	ldr	r0, [pc, #52]	@ (200348c <bgInitSub_call+0xb4>)
 2003458:	00db      	lsls	r3, r3, #3
 200345a:	18fb      	adds	r3, r7, r3
 200345c:	621d      	str	r5, [r3, #32]
 200345e:	6805      	ldr	r5, [r0, #0]
 2003460:	61de      	str	r6, [r3, #28]
 2003462:	432a      	orrs	r2, r5
 2003464:	6002      	str	r2, [r0, #0]
 2003466:	3324      	adds	r3, #36	@ 0x24
 2003468:	7019      	strb	r1, [r3, #0]
 200346a:	f7ff fee3 	bl	2003234 <bgUpdate>
 200346e:	4640      	mov	r0, r8
 2003470:	b003      	add	sp, #12
 2003472:	bcf0      	pop	{r4, r5, r6, r7}
 2003474:	46bb      	mov	fp, r7
 2003476:	46b2      	mov	sl, r6
 2003478:	46a9      	mov	r9, r5
 200347a:	46a0      	mov	r8, r4
 200347c:	bdf0      	pop	{r4, r5, r6, r7, pc}
 200347e:	46c0      	nop			@ (mov r8, r8)
 2003480:	04001008 	streq	r1, [r0], #-8
 2003484:	0201b9d4 	andeq	fp, r1, #212, 18	@ 0x350000
 2003488:	0201b9cc 	andeq	fp, r1, #204, 18	@ 0x330000
 200348c:	04001000 	streq	r1, [r0], #-0

02003490 <systemValueHandler>:
 2003490:	0001      	movs	r1, r0
 2003492:	b510      	push	{r4, lr}
 2003494:	2805      	cmp	r0, #5
 2003496:	d013      	beq.n	20034c0 <systemValueHandler+0x30>
 2003498:	2380      	movs	r3, #128	@ 0x80
 200349a:	02db      	lsls	r3, r3, #11
 200349c:	4298      	cmp	r0, r3
 200349e:	d008      	beq.n	20034b2 <systemValueHandler+0x22>
 20034a0:	2804      	cmp	r0, #4
 20034a2:	d10c      	bne.n	20034be <systemValueHandler+0x2e>
 20034a4:	4b0a      	ldr	r3, [pc, #40]	@ (20034d0 <systemValueHandler+0x40>)
 20034a6:	681b      	ldr	r3, [r3, #0]
 20034a8:	2b00      	cmp	r3, #0
 20034aa:	d008      	beq.n	20034be <systemValueHandler+0x2e>
 20034ac:	2001      	movs	r0, #1
 20034ae:	4798      	blx	r3
 20034b0:	e005      	b.n	20034be <systemValueHandler+0x2e>
 20034b2:	2000      	movs	r0, #0
 20034b4:	f7ff f93a 	bl	200272c <fifoSendValue32>
 20034b8:	4806      	ldr	r0, [pc, #24]	@ (20034d4 <systemValueHandler+0x44>)
 20034ba:	f7ff fe6d 	bl	2003198 <swiDelay>
 20034be:	bd10      	pop	{r4, pc}
 20034c0:	4b03      	ldr	r3, [pc, #12]	@ (20034d0 <systemValueHandler+0x40>)
 20034c2:	681b      	ldr	r3, [r3, #0]
 20034c4:	2b00      	cmp	r3, #0
 20034c6:	d0fa      	beq.n	20034be <systemValueHandler+0x2e>
 20034c8:	2000      	movs	r0, #0
 20034ca:	4798      	blx	r3
 20034cc:	e7f7      	b.n	20034be <systemValueHandler+0x2e>
 20034ce:	46c0      	nop			@ (mov r8, r8)
 20034d0:	0201bb14 	andeq	fp, r1, #20, 22	@ 0x5000
 20034d4:	000664b8 			@ <UNDEFINED> instruction: 0x000664b8

020034d8 <systemMsgHandler>:
 20034d8:	b510      	push	{r4, lr}
 20034da:	b086      	sub	sp, #24
 20034dc:	466c      	mov	r4, sp
 20034de:	0001      	movs	r1, r0
 20034e0:	466a      	mov	r2, sp
 20034e2:	2002      	movs	r0, #2
 20034e4:	f7ff f94e 	bl	2002784 <fifoGetDatamsg>
 20034e8:	4b0d      	ldr	r3, [pc, #52]	@ (2003520 <systemMsgHandler+0x48>)
 20034ea:	8822      	ldrh	r2, [r4, #0]
 20034ec:	429a      	cmp	r2, r3
 20034ee:	d001      	beq.n	20034f4 <systemMsgHandler+0x1c>
 20034f0:	b006      	add	sp, #24
 20034f2:	bd10      	pop	{r4, pc}
 20034f4:	8a22      	ldrh	r2, [r4, #16]
 20034f6:	4b0b      	ldr	r3, [pc, #44]	@ (2003524 <systemMsgHandler+0x4c>)
 20034f8:	819a      	strh	r2, [r3, #12]
 20034fa:	2104      	movs	r1, #4
 20034fc:	5e62      	ldrsh	r2, [r4, r1]
 20034fe:	801a      	strh	r2, [r3, #0]
 2003500:	2106      	movs	r1, #6
 2003502:	5e62      	ldrsh	r2, [r4, r1]
 2003504:	805a      	strh	r2, [r3, #2]
 2003506:	2108      	movs	r1, #8
 2003508:	5e62      	ldrsh	r2, [r4, r1]
 200350a:	809a      	strh	r2, [r3, #4]
 200350c:	210a      	movs	r1, #10
 200350e:	5e62      	ldrsh	r2, [r4, r1]
 2003510:	80da      	strh	r2, [r3, #6]
 2003512:	210c      	movs	r1, #12
 2003514:	5e62      	ldrsh	r2, [r4, r1]
 2003516:	811a      	strh	r2, [r3, #8]
 2003518:	210e      	movs	r1, #14
 200351a:	5e62      	ldrsh	r2, [r4, r1]
 200351c:	815a      	strh	r2, [r3, #10]
 200351e:	e7e7      	b.n	20034f0 <systemMsgHandler+0x18>
 2003520:	00001239 	andeq	r1, r0, r9, lsr r2
 2003524:	02fff000 	rscseq	pc, pc, #0

02003528 <powerOn>:
 2003528:	2180      	movs	r1, #128	@ 0x80
 200352a:	0249      	lsls	r1, r1, #9
 200352c:	b510      	push	{r4, lr}
 200352e:	4208      	tst	r0, r1
 2003530:	d006      	beq.n	2003540 <powerOn+0x18>
 2003532:	4a07      	ldr	r2, [pc, #28]	@ (2003550 <powerOn+0x28>)
 2003534:	8813      	ldrh	r3, [r2, #0]
 2003536:	4303      	orrs	r3, r0
 2003538:	041b      	lsls	r3, r3, #16
 200353a:	0c1b      	lsrs	r3, r3, #16
 200353c:	8013      	strh	r3, [r2, #0]
 200353e:	bd10      	pop	{r4, pc}
 2003540:	0400      	lsls	r0, r0, #16
 2003542:	0c00      	lsrs	r0, r0, #16
 2003544:	4301      	orrs	r1, r0
 2003546:	2000      	movs	r0, #0
 2003548:	f7ff f8f0 	bl	200272c <fifoSendValue32>
 200354c:	e7f7      	b.n	200353e <powerOn+0x16>
 200354e:	46c0      	nop			@ (mov r8, r8)
 2003550:	04000304 	streq	r0, [r0], #-772	@ 0xfffffcfc

02003554 <sinLutLookup>:
 2003554:	22c0      	movs	r2, #192	@ 0xc0
 2003556:	237f      	movs	r3, #127	@ 0x7f
 2003558:	1180      	asrs	r0, r0, #6
 200355a:	0052      	lsls	r2, r2, #1
 200355c:	4003      	ands	r3, r0
 200355e:	4210      	tst	r0, r2
 2003560:	d012      	beq.n	2003588 <sinLutLookup+0x34>
 2003562:	05c1      	lsls	r1, r0, #23
 2003564:	d50a      	bpl.n	200357c <sinLutLookup+0x28>
 2003566:	05c0      	lsls	r0, r0, #23
 2003568:	0dc0      	lsrs	r0, r0, #23
 200356a:	4290      	cmp	r0, r2
 200356c:	db10      	blt.n	2003590 <sinLutLookup+0x3c>
 200356e:	2280      	movs	r2, #128	@ 0x80
 2003570:	490a      	ldr	r1, [pc, #40]	@ (200359c <sinLutLookup+0x48>)
 2003572:	1ad3      	subs	r3, r2, r3
 2003574:	005b      	lsls	r3, r3, #1
 2003576:	5a58      	ldrh	r0, [r3, r1]
 2003578:	4240      	negs	r0, r0
 200357a:	4770      	bx	lr
 200357c:	2280      	movs	r2, #128	@ 0x80
 200357e:	4907      	ldr	r1, [pc, #28]	@ (200359c <sinLutLookup+0x48>)
 2003580:	1ad3      	subs	r3, r2, r3
 2003582:	005b      	lsls	r3, r3, #1
 2003584:	5a58      	ldrh	r0, [r3, r1]
 2003586:	e7f8      	b.n	200357a <sinLutLookup+0x26>
 2003588:	4a04      	ldr	r2, [pc, #16]	@ (200359c <sinLutLookup+0x48>)
 200358a:	005b      	lsls	r3, r3, #1
 200358c:	5a98      	ldrh	r0, [r3, r2]
 200358e:	e7f4      	b.n	200357a <sinLutLookup+0x26>
 2003590:	4a02      	ldr	r2, [pc, #8]	@ (200359c <sinLutLookup+0x48>)
 2003592:	005b      	lsls	r3, r3, #1
 2003594:	5a98      	ldrh	r0, [r3, r2]
 2003596:	4240      	negs	r0, r0
 2003598:	e7ef      	b.n	200357a <sinLutLookup+0x26>
 200359a:	46c0      	nop			@ (mov r8, r8)
 200359c:	02015868 	andeq	r5, r1, #104, 16	@ 0x680000

020035a0 <sinLerp>:
 20035a0:	b570      	push	{r4, r5, r6, lr}
 20035a2:	1e04      	subs	r4, r0, #0
 20035a4:	da04      	bge.n	20035b0 <sinLerp+0x10>
 20035a6:	4b0b      	ldr	r3, [pc, #44]	@ (20035d4 <sinLerp+0x34>)
 20035a8:	469c      	mov	ip, r3
 20035aa:	4464      	add	r4, ip
 20035ac:	0424      	lsls	r4, r4, #16
 20035ae:	1424      	asrs	r4, r4, #16
 20035b0:	0020      	movs	r0, r4
 20035b2:	f7ff ffcf 	bl	2003554 <sinLutLookup>
 20035b6:	0005      	movs	r5, r0
 20035b8:	0020      	movs	r0, r4
 20035ba:	3040      	adds	r0, #64	@ 0x40
 20035bc:	f7ff ffca 	bl	2003554 <sinLutLookup>
 20035c0:	233f      	movs	r3, #63	@ 0x3f
 20035c2:	1b40      	subs	r0, r0, r5
 20035c4:	4023      	ands	r3, r4
 20035c6:	4358      	muls	r0, r3
 20035c8:	1180      	asrs	r0, r0, #6
 20035ca:	1940      	adds	r0, r0, r5
 20035cc:	10c0      	asrs	r0, r0, #3
 20035ce:	0400      	lsls	r0, r0, #16
 20035d0:	1400      	asrs	r0, r0, #16
 20035d2:	bd70      	pop	{r4, r5, r6, pc}
 20035d4:	ffff8000 			@ <UNDEFINED> instruction: 0xffff8000

020035d8 <cosLerp>:
 20035d8:	2380      	movs	r3, #128	@ 0x80
 20035da:	0400      	lsls	r0, r0, #16
 20035dc:	0c00      	lsrs	r0, r0, #16
 20035de:	019b      	lsls	r3, r3, #6
 20035e0:	18c3      	adds	r3, r0, r3
 20035e2:	b570      	push	{r4, r5, r6, lr}
 20035e4:	041c      	lsls	r4, r3, #16
 20035e6:	1424      	asrs	r4, r4, #16
 20035e8:	041b      	lsls	r3, r3, #16
 20035ea:	d504      	bpl.n	20035f6 <cosLerp+0x1e>
 20035ec:	4b0b      	ldr	r3, [pc, #44]	@ (200361c <cosLerp+0x44>)
 20035ee:	469c      	mov	ip, r3
 20035f0:	4460      	add	r0, ip
 20035f2:	0404      	lsls	r4, r0, #16
 20035f4:	1424      	asrs	r4, r4, #16
 20035f6:	0020      	movs	r0, r4
 20035f8:	f7ff ffac 	bl	2003554 <sinLutLookup>
 20035fc:	0005      	movs	r5, r0
 20035fe:	0020      	movs	r0, r4
 2003600:	3040      	adds	r0, #64	@ 0x40
 2003602:	f7ff ffa7 	bl	2003554 <sinLutLookup>
 2003606:	233f      	movs	r3, #63	@ 0x3f
 2003608:	1b40      	subs	r0, r0, r5
 200360a:	4023      	ands	r3, r4
 200360c:	4358      	muls	r0, r3
 200360e:	1180      	asrs	r0, r0, #6
 2003610:	1940      	adds	r0, r0, r5
 2003612:	10c0      	asrs	r0, r0, #3
 2003614:	0400      	lsls	r0, r0, #16
 2003616:	1400      	asrs	r0, r0, #16
 2003618:	bd70      	pop	{r4, r5, r6, pc}
 200361a:	46c0      	nop			@ (mov r8, r8)
 200361c:	ffffa000 			@ <UNDEFINED> instruction: 0xffffa000

02003620 <vramDefault>:
 2003620:	4b23      	ldr	r3, [pc, #140]	@ (20036b0 <vramDefault+0x90>)
 2003622:	4a24      	ldr	r2, [pc, #144]	@ (20036b4 <vramDefault+0x94>)
 2003624:	601a      	str	r2, [r3, #0]
 2003626:	2380      	movs	r3, #128	@ 0x80
 2003628:	4a23      	ldr	r2, [pc, #140]	@ (20036b8 <vramDefault+0x98>)
 200362a:	7013      	strb	r3, [r2, #0]
 200362c:	4a23      	ldr	r2, [pc, #140]	@ (20036bc <vramDefault+0x9c>)
 200362e:	7013      	strb	r3, [r2, #0]
 2003630:	4a23      	ldr	r2, [pc, #140]	@ (20036c0 <vramDefault+0xa0>)
 2003632:	7013      	strb	r3, [r2, #0]
 2003634:	4a23      	ldr	r2, [pc, #140]	@ (20036c4 <vramDefault+0xa4>)
 2003636:	7013      	strb	r3, [r2, #0]
 2003638:	4a23      	ldr	r2, [pc, #140]	@ (20036c8 <vramDefault+0xa8>)
 200363a:	7013      	strb	r3, [r2, #0]
 200363c:	2200      	movs	r2, #0
 200363e:	4b23      	ldr	r3, [pc, #140]	@ (20036cc <vramDefault+0xac>)
 2003640:	601a      	str	r2, [r3, #0]
 2003642:	4a23      	ldr	r2, [pc, #140]	@ (20036d0 <vramDefault+0xb0>)
 2003644:	6013      	str	r3, [r2, #0]
 2003646:	22a0      	movs	r2, #160	@ 0xa0
 2003648:	4b22      	ldr	r3, [pc, #136]	@ (20036d4 <vramDefault+0xb4>)
 200364a:	04d2      	lsls	r2, r2, #19
 200364c:	601a      	str	r2, [r3, #0]
 200364e:	4a22      	ldr	r2, [pc, #136]	@ (20036d8 <vramDefault+0xb8>)
 2003650:	4b22      	ldr	r3, [pc, #136]	@ (20036dc <vramDefault+0xbc>)
 2003652:	6013      	str	r3, [r2, #0]
 2003654:	6813      	ldr	r3, [r2, #0]
 2003656:	2b00      	cmp	r3, #0
 2003658:	dbfc      	blt.n	2003654 <vramDefault+0x34>
 200365a:	2100      	movs	r1, #0
 200365c:	4b1b      	ldr	r3, [pc, #108]	@ (20036cc <vramDefault+0xac>)
 200365e:	6019      	str	r1, [r3, #0]
 2003660:	491b      	ldr	r1, [pc, #108]	@ (20036d0 <vramDefault+0xb0>)
 2003662:	600b      	str	r3, [r1, #0]
 2003664:	21e0      	movs	r1, #224	@ 0xe0
 2003666:	4b1b      	ldr	r3, [pc, #108]	@ (20036d4 <vramDefault+0xb4>)
 2003668:	04c9      	lsls	r1, r1, #19
 200366a:	6019      	str	r1, [r3, #0]
 200366c:	4b1b      	ldr	r3, [pc, #108]	@ (20036dc <vramDefault+0xbc>)
 200366e:	6013      	str	r3, [r2, #0]
 2003670:	4a19      	ldr	r2, [pc, #100]	@ (20036d8 <vramDefault+0xb8>)
 2003672:	6813      	ldr	r3, [r2, #0]
 2003674:	2b00      	cmp	r3, #0
 2003676:	dbfc      	blt.n	2003672 <vramDefault+0x52>
 2003678:	2100      	movs	r1, #0
 200367a:	4b14      	ldr	r3, [pc, #80]	@ (20036cc <vramDefault+0xac>)
 200367c:	6019      	str	r1, [r3, #0]
 200367e:	4914      	ldr	r1, [pc, #80]	@ (20036d0 <vramDefault+0xb0>)
 2003680:	600b      	str	r3, [r1, #0]
 2003682:	21d0      	movs	r1, #208	@ 0xd0
 2003684:	4b13      	ldr	r3, [pc, #76]	@ (20036d4 <vramDefault+0xb4>)
 2003686:	04c9      	lsls	r1, r1, #19
 2003688:	6019      	str	r1, [r3, #0]
 200368a:	4b15      	ldr	r3, [pc, #84]	@ (20036e0 <vramDefault+0xc0>)
 200368c:	6013      	str	r3, [r2, #0]
 200368e:	4a12      	ldr	r2, [pc, #72]	@ (20036d8 <vramDefault+0xb8>)
 2003690:	6813      	ldr	r3, [r2, #0]
 2003692:	2b00      	cmp	r3, #0
 2003694:	dbfc      	blt.n	2003690 <vramDefault+0x70>
 2003696:	2281      	movs	r2, #129	@ 0x81
 2003698:	4b05      	ldr	r3, [pc, #20]	@ (20036b0 <vramDefault+0x90>)
 200369a:	6818      	ldr	r0, [r3, #0]
 200369c:	701a      	strb	r2, [r3, #0]
 200369e:	4b11      	ldr	r3, [pc, #68]	@ (20036e4 <vramDefault+0xc4>)
 20036a0:	3201      	adds	r2, #1
 20036a2:	701a      	strb	r2, [r3, #0]
 20036a4:	2384      	movs	r3, #132	@ 0x84
 20036a6:	4a10      	ldr	r2, [pc, #64]	@ (20036e8 <vramDefault+0xc8>)
 20036a8:	7013      	strb	r3, [r2, #0]
 20036aa:	4a10      	ldr	r2, [pc, #64]	@ (20036ec <vramDefault+0xcc>)
 20036ac:	7013      	strb	r3, [r2, #0]
 20036ae:	4770      	bx	lr
 20036b0:	04000240 	streq	r0, [r0], #-576	@ 0xfffffdc0
 20036b4:	80808080 	addhi	r8, r0, r0, lsl #1
 20036b8:	04000244 	streq	r0, [r0], #-580	@ 0xfffffdbc
 20036bc:	04000245 	streq	r0, [r0], #-581	@ 0xfffffdbb
 20036c0:	04000246 	streq	r0, [r0], #-582	@ 0xfffffdba
 20036c4:	04000248 	streq	r0, [r0], #-584	@ 0xfffffdb8
 20036c8:	04000249 	streq	r0, [r0], #-585	@ 0xfffffdb7
 20036cc:	040000ec 	streq	r0, [r0], #-236	@ 0xffffff14
 20036d0:	040000d4 	streq	r0, [r0], #-212	@ 0xffffff2c
 20036d4:	040000d8 	streq	r0, [r0], #-216	@ 0xffffff28
 20036d8:	040000dc 	streq	r0, [r0], #-220	@ 0xffffff24
 20036dc:	85000200 	strhi	r0, [r0, #-512]	@ 0xfffffe00
 20036e0:	85029000 	strhi	r9, [r2, #-0]
 20036e4:	04000241 	streq	r0, [r0], #-577	@ 0xfffffdbf
 20036e8:	04000242 	streq	r0, [r0], #-578	@ 0xfffffdbe
 20036ec:	04000243 	streq	r0, [r0], #-579	@ 0xfffffdbd

020036f0 <siscanf>:
 20036f0:	e92d000e 	push	{r1, r2, r3}
 20036f4:	e3a02f81 	mov	r2, #516	@ 0x204
 20036f8:	e92d4010 	push	{r4, lr}
 20036fc:	e3a04000 	mov	r4, #0
 2003700:	e24dd084 	sub	sp, sp, #132	@ 0x84
 2003704:	e1cd21b4 	strh	r2, [sp, #20]
 2003708:	e58d4078 	str	r4, [sp, #120]	@ 0x78
 200370c:	e58d0008 	str	r0, [sp, #8]
 2003710:	e58d0018 	str	r0, [sp, #24]
 2003714:	eb0006f4 	bl	20052ec <strlen>
 2003718:	e3e02000 	mvn	r2, #0
 200371c:	e59f1040 	ldr	r1, [pc, #64]	@ 2003764 <siscanf+0x74>
 2003720:	e28d3090 	add	r3, sp, #144	@ 0x90
 2003724:	e58d1028 	str	r1, [sp, #40]	@ 0x28
 2003728:	e1cd21b6 	strh	r2, [sp, #22]
 200372c:	e58d3004 	str	r3, [sp, #4]
 2003730:	e58d4038 	str	r4, [sp, #56]	@ 0x38
 2003734:	e58d404c 	str	r4, [sp, #76]	@ 0x4c
 2003738:	e58d000c 	str	r0, [sp, #12]
 200373c:	e58d001c 	str	r0, [sp, #28]
 2003740:	eb003e14 	bl	2012f98 <__getreent>
 2003744:	e59d208c 	ldr	r2, [sp, #140]	@ 0x8c
 2003748:	e59d3004 	ldr	r3, [sp, #4]
 200374c:	e28d1008 	add	r1, sp, #8
 2003750:	eb0012d4 	bl	20082a8 <__ssvfiscanf_r>
 2003754:	e28dd084 	add	sp, sp, #132	@ 0x84
 2003758:	e8bd4010 	pop	{r4, lr}
 200375c:	e28dd00c 	add	sp, sp, #12
 2003760:	e12fff1e 	bx	lr
 2003764:	020037b4 	andeq	r3, r0, #180, 14	@ 0x2d00000

02003768 <__sread>:
 2003768:	e92d4010 	push	{r4, lr}
 200376c:	e1a04001 	mov	r4, r1
 2003770:	e1d110fe 	ldrsh	r1, [r1, #14]
 2003774:	eb003e8f 	bl	20131b8 <_read_r>
 2003778:	e3500000 	cmp	r0, #0
 200377c:	ba000007 	blt	20037a0 <__sread+0x38>
 2003780:	e5943050 	ldr	r3, [r4, #80]	@ 0x50
 2003784:	e5942054 	ldr	r2, [r4, #84]	@ 0x54
 2003788:	e0933000 	adds	r3, r3, r0
 200378c:	e0a22fc0 	adc	r2, r2, r0, asr #31
 2003790:	e5843050 	str	r3, [r4, #80]	@ 0x50
 2003794:	e5842054 	str	r2, [r4, #84]	@ 0x54
 2003798:	e8bd4010 	pop	{r4, lr}
 200379c:	e12fff1e 	bx	lr
 20037a0:	e1d430bc 	ldrh	r3, [r4, #12]
 20037a4:	e3c33a01 	bic	r3, r3, #4096	@ 0x1000
 20037a8:	e1c430bc 	strh	r3, [r4, #12]
 20037ac:	e8bd4010 	pop	{r4, lr}
 20037b0:	e12fff1e 	bx	lr

020037b4 <__seofread>:
 20037b4:	e3a00000 	mov	r0, #0
 20037b8:	e12fff1e 	bx	lr

020037bc <__swrite>:
 20037bc:	e92d40f0 	push	{r4, r5, r6, r7, lr}
 20037c0:	e1a04001 	mov	r4, r1
 20037c4:	e1d110fc 	ldrsh	r1, [r1, #12]
 20037c8:	e3110c01 	tst	r1, #256	@ 0x100
 20037cc:	e1a05000 	mov	r5, r0
 20037d0:	e1a06002 	mov	r6, r2
 20037d4:	e1a07003 	mov	r7, r3
 20037d8:	e24dd00c 	sub	sp, sp, #12
 20037dc:	1a000009 	bne	2003808 <__swrite+0x4c>
 20037e0:	e3c11a01 	bic	r1, r1, #4096	@ 0x1000
 20037e4:	e1c410bc 	strh	r1, [r4, #12]
 20037e8:	e1a03007 	mov	r3, r7
 20037ec:	e1a02006 	mov	r2, r6
 20037f0:	e1a00005 	mov	r0, r5
 20037f4:	e1d410fe 	ldrsh	r1, [r4, #14]
 20037f8:	eb003ecf 	bl	201333c <_write_r>
 20037fc:	e28dd00c 	add	sp, sp, #12
 2003800:	e8bd40f0 	pop	{r4, r5, r6, r7, lr}
 2003804:	e12fff1e 	bx	lr
 2003808:	e3a03002 	mov	r3, #2
 200380c:	e58d3000 	str	r3, [sp]
 2003810:	e3a02000 	mov	r2, #0
 2003814:	e3a03000 	mov	r3, #0
 2003818:	e1d410fe 	ldrsh	r1, [r4, #14]
 200381c:	eb003e41 	bl	2013128 <_lseek_r>
 2003820:	e1d410fc 	ldrsh	r1, [r4, #12]
 2003824:	eaffffed 	b	20037e0 <__swrite+0x24>

02003828 <__sseek>:
 2003828:	e92d4010 	push	{r4, lr}
 200382c:	e24dd008 	sub	sp, sp, #8
 2003830:	e59dc010 	ldr	ip, [sp, #16]
 2003834:	e58dc000 	str	ip, [sp]
 2003838:	e1a04001 	mov	r4, r1
 200383c:	e1d110fe 	ldrsh	r1, [r1, #14]
 2003840:	eb003e38 	bl	2013128 <_lseek_r>
 2003844:	e3710001 	cmn	r1, #1
 2003848:	03700001 	cmneq	r0, #1
 200384c:	e1d430fc 	ldrsh	r3, [r4, #12]
 2003850:	03c33a01 	biceq	r3, r3, #4096	@ 0x1000
 2003854:	13833a01 	orrne	r3, r3, #4096	@ 0x1000
 2003858:	15840050 	strne	r0, [r4, #80]	@ 0x50
 200385c:	15841054 	strne	r1, [r4, #84]	@ 0x54
 2003860:	e1c430bc 	strh	r3, [r4, #12]
 2003864:	e28dd008 	add	sp, sp, #8
 2003868:	e8bd4010 	pop	{r4, lr}
 200386c:	e12fff1e 	bx	lr

02003870 <__sclose>:
 2003870:	e92d4010 	push	{r4, lr}
 2003874:	e1d110fe 	ldrsh	r1, [r1, #14]
 2003878:	eb003de2 	bl	2013008 <_close_r>
 200387c:	e8bd4010 	pop	{r4, lr}
 2003880:	e12fff1e 	bx	lr

02003884 <_calloc_r>:
 2003884:	e1a03001 	mov	r3, r1
 2003888:	e92d4070 	push	{r4, r5, r6, lr}
 200388c:	e0851293 	umull	r1, r5, r3, r2
 2003890:	e3550000 	cmp	r5, #0
 2003894:	1a000027 	bne	2003938 <_calloc_r+0xb4>
 2003898:	eb000036 	bl	2003978 <_malloc_r>
 200389c:	e2504000 	subs	r4, r0, #0
 20038a0:	0a000027 	beq	2003944 <_calloc_r+0xc0>
 20038a4:	e5142004 	ldr	r2, [r4, #-4]
 20038a8:	e3c22003 	bic	r2, r2, #3
 20038ac:	e2422004 	sub	r2, r2, #4
 20038b0:	e3520024 	cmp	r2, #36	@ 0x24
 20038b4:	8a00000e 	bhi	20038f4 <_calloc_r+0x70>
 20038b8:	e3520013 	cmp	r2, #19
 20038bc:	91a02004 	movls	r2, r4
 20038c0:	9a000004 	bls	20038d8 <_calloc_r+0x54>
 20038c4:	e352001b 	cmp	r2, #27
 20038c8:	e5845000 	str	r5, [r4]
 20038cc:	e5845004 	str	r5, [r4, #4]
 20038d0:	92842008 	addls	r2, r4, #8
 20038d4:	8a00000b 	bhi	2003908 <_calloc_r+0x84>
 20038d8:	e3a03000 	mov	r3, #0
 20038dc:	e5823000 	str	r3, [r2]
 20038e0:	e5823004 	str	r3, [r2, #4]
 20038e4:	e5823008 	str	r3, [r2, #8]
 20038e8:	e1a00004 	mov	r0, r4
 20038ec:	e8bd4070 	pop	{r4, r5, r6, lr}
 20038f0:	e12fff1e 	bx	lr
 20038f4:	e1a01005 	mov	r1, r5
 20038f8:	eb000423 	bl	200498c <memset>
 20038fc:	e1a00004 	mov	r0, r4
 2003900:	e8bd4070 	pop	{r4, r5, r6, lr}
 2003904:	e12fff1e 	bx	lr
 2003908:	e3a03000 	mov	r3, #0
 200390c:	e3520024 	cmp	r2, #36	@ 0x24
 2003910:	12842010 	addne	r2, r4, #16
 2003914:	02842018 	addeq	r2, r4, #24
 2003918:	e5845008 	str	r5, [r4, #8]
 200391c:	e584500c 	str	r5, [r4, #12]
 2003920:	05845010 	streq	r5, [r4, #16]
 2003924:	05845014 	streq	r5, [r4, #20]
 2003928:	e5823000 	str	r3, [r2]
 200392c:	e5823004 	str	r3, [r2, #4]
 2003930:	e5823008 	str	r3, [r2, #8]
 2003934:	eaffffeb 	b	20038e8 <_calloc_r+0x64>
 2003938:	eb0003a0 	bl	20047c0 <__errno>
 200393c:	e3a0300c 	mov	r3, #12
 2003940:	e5803000 	str	r3, [r0]
 2003944:	e3a04000 	mov	r4, #0
 2003948:	e1a00004 	mov	r0, r4
 200394c:	e8bd4070 	pop	{r4, r5, r6, lr}
 2003950:	e12fff1e 	bx	lr

02003954 <realloc>:
 2003954:	e92d4070 	push	{r4, r5, r6, lr}
 2003958:	e1a05001 	mov	r5, r1
 200395c:	e1a04000 	mov	r4, r0
 2003960:	eb003d8c 	bl	2012f98 <__getreent>
 2003964:	e1a02005 	mov	r2, r5
 2003968:	e1a01004 	mov	r1, r4
 200396c:	eb000446 	bl	2004a8c <_realloc_r>
 2003970:	e8bd4070 	pop	{r4, r5, r6, lr}
 2003974:	e12fff1e 	bx	lr

02003978 <_malloc_r>:
 2003978:	e92d4ff0 	push	{r4, r5, r6, r7, r8, r9, sl, fp, lr}
 200397c:	e281300b 	add	r3, r1, #11
 2003980:	e3530016 	cmp	r3, #22
 2003984:	e1a05000 	mov	r5, r0
 2003988:	e24dd00c 	sub	sp, sp, #12
 200398c:	8a00001c 	bhi	2003a04 <_malloc_r+0x8c>
 2003990:	e3510010 	cmp	r1, #16
 2003994:	8a000081 	bhi	2003ba0 <_malloc_r+0x228>
 2003998:	eb00056b 	bl	2004f4c <__malloc_lock>
 200399c:	e3a06010 	mov	r6, #16
 20039a0:	e3a03018 	mov	r3, #24
 20039a4:	e3a00002 	mov	r0, #2
 20039a8:	e59f7770 	ldr	r7, [pc, #1904]	@ 2004120 <_malloc_r+0x7a8>
 20039ac:	e0873003 	add	r3, r7, r3
 20039b0:	e5934004 	ldr	r4, [r3, #4]
 20039b4:	e2432008 	sub	r2, r3, #8
 20039b8:	e1540002 	cmp	r4, r2
 20039bc:	0a0000f4 	beq	2003d94 <_malloc_r+0x41c>
 20039c0:	e5943004 	ldr	r3, [r4, #4]
 20039c4:	e594200c 	ldr	r2, [r4, #12]
 20039c8:	e3c33003 	bic	r3, r3, #3
 20039cc:	e5941008 	ldr	r1, [r4, #8]
 20039d0:	e0843003 	add	r3, r4, r3
 20039d4:	e581200c 	str	r2, [r1, #12]
 20039d8:	e5821008 	str	r1, [r2, #8]
 20039dc:	e5932004 	ldr	r2, [r3, #4]
 20039e0:	e3822001 	orr	r2, r2, #1
 20039e4:	e1a00005 	mov	r0, r5
 20039e8:	e5832004 	str	r2, [r3, #4]
 20039ec:	e2844008 	add	r4, r4, #8
 20039f0:	eb00055b 	bl	2004f64 <__malloc_unlock>
 20039f4:	e1a00004 	mov	r0, r4
 20039f8:	e28dd00c 	add	sp, sp, #12
 20039fc:	e8bd4ff0 	pop	{r4, r5, r6, r7, r8, r9, sl, fp, lr}
 2003a00:	e12fff1e 	bx	lr
 2003a04:	e3c36007 	bic	r6, r3, #7
 2003a08:	e1510006 	cmp	r1, r6
 2003a0c:	93a01000 	movls	r1, #0
 2003a10:	83a01001 	movhi	r1, #1
 2003a14:	e1911fa3 	orrs	r1, r1, r3, lsr #31
 2003a18:	1a000060 	bne	2003ba0 <_malloc_r+0x228>
 2003a1c:	eb00054a 	bl	2004f4c <__malloc_lock>
 2003a20:	e3560f7e 	cmp	r6, #504	@ 0x1f8
 2003a24:	3a0001ba 	bcc	2004114 <_malloc_r+0x79c>
 2003a28:	e1b034a6 	lsrs	r3, r6, #9
 2003a2c:	0a000062 	beq	2003bbc <_malloc_r+0x244>
 2003a30:	e3530004 	cmp	r3, #4
 2003a34:	8a0000f6 	bhi	2003e14 <_malloc_r+0x49c>
 2003a38:	e1a03326 	lsr	r3, r6, #6
 2003a3c:	e2830039 	add	r0, r3, #57	@ 0x39
 2003a40:	e283c038 	add	ip, r3, #56	@ 0x38
 2003a44:	e1a01180 	lsl	r1, r0, #3
 2003a48:	e59f76d0 	ldr	r7, [pc, #1744]	@ 2004120 <_malloc_r+0x7a8>
 2003a4c:	e0871001 	add	r1, r7, r1
 2003a50:	e5914004 	ldr	r4, [r1, #4]
 2003a54:	e2411008 	sub	r1, r1, #8
 2003a58:	e1510004 	cmp	r1, r4
 2003a5c:	1a000006 	bne	2003a7c <_malloc_r+0x104>
 2003a60:	ea00000b 	b	2003a94 <_malloc_r+0x11c>
 2003a64:	e3520000 	cmp	r2, #0
 2003a68:	e594200c 	ldr	r2, [r4, #12]
 2003a6c:	aaffffd6 	bge	20039cc <_malloc_r+0x54>
 2003a70:	e1510002 	cmp	r1, r2
 2003a74:	0a000006 	beq	2003a94 <_malloc_r+0x11c>
 2003a78:	e1a04002 	mov	r4, r2
 2003a7c:	e5943004 	ldr	r3, [r4, #4]
 2003a80:	e3c33003 	bic	r3, r3, #3
 2003a84:	e0432006 	sub	r2, r3, r6
 2003a88:	e352000f 	cmp	r2, #15
 2003a8c:	dafffff4 	ble	2003a64 <_malloc_r+0xec>
 2003a90:	e1a0000c 	mov	r0, ip
 2003a94:	e5974010 	ldr	r4, [r7, #16]
 2003a98:	e59f8684 	ldr	r8, [pc, #1668]	@ 2004124 <_malloc_r+0x7ac>
 2003a9c:	e1540008 	cmp	r4, r8
 2003aa0:	0597e004 	ldreq	lr, [r7, #4]
 2003aa4:	0a000018 	beq	2003b0c <_malloc_r+0x194>
 2003aa8:	e5941004 	ldr	r1, [r4, #4]
 2003aac:	e3c11003 	bic	r1, r1, #3
 2003ab0:	e0413006 	sub	r3, r1, r6
 2003ab4:	e353000f 	cmp	r3, #15
 2003ab8:	ca000101 	bgt	2003ec4 <_malloc_r+0x54c>
 2003abc:	e3530000 	cmp	r3, #0
 2003ac0:	e5878010 	str	r8, [r7, #16]
 2003ac4:	e5878014 	str	r8, [r7, #20]
 2003ac8:	aa0000f5 	bge	2003ea4 <_malloc_r+0x52c>
 2003acc:	e3510c02 	cmp	r1, #512	@ 0x200
 2003ad0:	e597e004 	ldr	lr, [r7, #4]
 2003ad4:	2a0000b3 	bcs	2003da8 <_malloc_r+0x430>
 2003ad8:	e3a02001 	mov	r2, #1
 2003adc:	e1a031a1 	lsr	r3, r1, #3
 2003ae0:	e0833002 	add	r3, r3, r2
 2003ae4:	e1a012a1 	lsr	r1, r1, #5
 2003ae8:	e18ee112 	orr	lr, lr, r2, lsl r1
 2003aec:	e7971183 	ldr	r1, [r7, r3, lsl #3]
 2003af0:	e0872183 	add	r2, r7, r3, lsl #3
 2003af4:	e2422008 	sub	r2, r2, #8
 2003af8:	e5841008 	str	r1, [r4, #8]
 2003afc:	e584200c 	str	r2, [r4, #12]
 2003b00:	e587e004 	str	lr, [r7, #4]
 2003b04:	e7874183 	str	r4, [r7, r3, lsl #3]
 2003b08:	e581400c 	str	r4, [r1, #12]
 2003b0c:	e3a0c001 	mov	ip, #1
 2003b10:	e1a03140 	asr	r3, r0, #2
 2003b14:	e1a0c31c 	lsl	ip, ip, r3
 2003b18:	e15c000e 	cmp	ip, lr
 2003b1c:	8a00002a 	bhi	2003bcc <_malloc_r+0x254>
 2003b20:	e11c000e 	tst	ip, lr
 2003b24:	1a000008 	bne	2003b4c <_malloc_r+0x1d4>
 2003b28:	e1a0c08c 	lsl	ip, ip, #1
 2003b2c:	e3c00003 	bic	r0, r0, #3
 2003b30:	e11c000e 	tst	ip, lr
 2003b34:	e2800004 	add	r0, r0, #4
 2003b38:	1a000003 	bne	2003b4c <_malloc_r+0x1d4>
 2003b3c:	e1a0c08c 	lsl	ip, ip, #1
 2003b40:	e11c000e 	tst	ip, lr
 2003b44:	e2800004 	add	r0, r0, #4
 2003b48:	0afffffb 	beq	2003b3c <_malloc_r+0x1c4>
 2003b4c:	e087a180 	add	sl, r7, r0, lsl #3
 2003b50:	e1a0e00a 	mov	lr, sl
 2003b54:	e1a09000 	mov	r9, r0
 2003b58:	e59e300c 	ldr	r3, [lr, #12]
 2003b5c:	ea000008 	b	2003b84 <_malloc_r+0x20c>
 2003b60:	e5932004 	ldr	r2, [r3, #4]
 2003b64:	e3c22003 	bic	r2, r2, #3
 2003b68:	e0421006 	sub	r1, r2, r6
 2003b6c:	e351000f 	cmp	r1, #15
 2003b70:	e1a04003 	mov	r4, r3
 2003b74:	e593300c 	ldr	r3, [r3, #12]
 2003b78:	ca0000ae 	bgt	2003e38 <_malloc_r+0x4c0>
 2003b7c:	e3510000 	cmp	r1, #0
 2003b80:	aa0000bd 	bge	2003e7c <_malloc_r+0x504>
 2003b84:	e15e0003 	cmp	lr, r3
 2003b88:	1afffff4 	bne	2003b60 <_malloc_r+0x1e8>
 2003b8c:	e2899001 	add	r9, r9, #1
 2003b90:	e3190003 	tst	r9, #3
 2003b94:	e28ee008 	add	lr, lr, #8
 2003b98:	1affffee 	bne	2003b58 <_malloc_r+0x1e0>
 2003b9c:	ea0000f3 	b	2003f70 <_malloc_r+0x5f8>
 2003ba0:	e3a0300c 	mov	r3, #12
 2003ba4:	e5853000 	str	r3, [r5]
 2003ba8:	e3a04000 	mov	r4, #0
 2003bac:	e1a00004 	mov	r0, r4
 2003bb0:	e28dd00c 	add	sp, sp, #12
 2003bb4:	e8bd4ff0 	pop	{r4, r5, r6, r7, r8, r9, sl, fp, lr}
 2003bb8:	e12fff1e 	bx	lr
 2003bbc:	e3a01c02 	mov	r1, #512	@ 0x200
 2003bc0:	e3a00040 	mov	r0, #64	@ 0x40
 2003bc4:	e3a0c03f 	mov	ip, #63	@ 0x3f
 2003bc8:	eaffff9e 	b	2003a48 <_malloc_r+0xd0>
 2003bcc:	e5974008 	ldr	r4, [r7, #8]
 2003bd0:	e5943004 	ldr	r3, [r4, #4]
 2003bd4:	e3c38003 	bic	r8, r3, #3
 2003bd8:	e0483006 	sub	r3, r8, r6
 2003bdc:	e353000f 	cmp	r3, #15
 2003be0:	c3a02000 	movgt	r2, #0
 2003be4:	d3a02001 	movle	r2, #1
 2003be8:	e1580006 	cmp	r8, r6
 2003bec:	33822001 	orrcc	r2, r2, #1
 2003bf0:	e3520000 	cmp	r2, #0
 2003bf4:	0a000059 	beq	2003d60 <_malloc_r+0x3e8>
 2003bf8:	e59f3528 	ldr	r3, [pc, #1320]	@ 2004128 <_malloc_r+0x7b0>
 2003bfc:	e59fb528 	ldr	fp, [pc, #1320]	@ 200412c <_malloc_r+0x7b4>
 2003c00:	e5932000 	ldr	r2, [r3]
 2003c04:	e59b3000 	ldr	r3, [fp]
 2003c08:	e0862002 	add	r2, r6, r2
 2003c0c:	e3730001 	cmn	r3, #1
 2003c10:	12822a01 	addne	r2, r2, #4096	@ 0x1000
 2003c14:	1282200f 	addne	r2, r2, #15
 2003c18:	13c22eff 	bicne	r2, r2, #4080	@ 0xff0
 2003c1c:	02822010 	addeq	r2, r2, #16
 2003c20:	13c2200f 	bicne	r2, r2, #15
 2003c24:	e0843008 	add	r3, r4, r8
 2003c28:	e1a01002 	mov	r1, r2
 2003c2c:	e1a00005 	mov	r0, r5
 2003c30:	e58d3004 	str	r3, [sp, #4]
 2003c34:	e58d2000 	str	r2, [sp]
 2003c38:	eb003d81 	bl	2013244 <_sbrk_r>
 2003c3c:	e3700001 	cmn	r0, #1
 2003c40:	e1a09000 	mov	r9, r0
 2003c44:	e89d000c 	ldm	sp, {r2, r3}
 2003c48:	0a0000b2 	beq	2003f18 <_malloc_r+0x5a0>
 2003c4c:	e1530000 	cmp	r3, r0
 2003c50:	8a0000ae 	bhi	2003f10 <_malloc_r+0x598>
 2003c54:	e59fa4d4 	ldr	sl, [pc, #1236]	@ 2004130 <_malloc_r+0x7b8>
 2003c58:	e59a1000 	ldr	r1, [sl]
 2003c5c:	e0821001 	add	r1, r2, r1
 2003c60:	e1a00001 	mov	r0, r1
 2003c64:	e58a1000 	str	r1, [sl]
 2003c68:	0a0000f7 	beq	200404c <_malloc_r+0x6d4>
 2003c6c:	e59b1000 	ldr	r1, [fp]
 2003c70:	e3710001 	cmn	r1, #1
 2003c74:	10493003 	subne	r3, r9, r3
 2003c78:	10833000 	addne	r3, r3, r0
 2003c7c:	058b9000 	streq	r9, [fp]
 2003c80:	158a3000 	strne	r3, [sl]
 2003c84:	e2193007 	ands	r3, r9, #7
 2003c88:	0a0000ce 	beq	2003fc8 <_malloc_r+0x650>
 2003c8c:	e2631008 	rsb	r1, r3, #8
 2003c90:	e0899001 	add	r9, r9, r1
 2003c94:	e2631a01 	rsb	r1, r3, #4096	@ 0x1000
 2003c98:	e0892002 	add	r2, r9, r2
 2003c9c:	e2811008 	add	r1, r1, #8
 2003ca0:	e0411002 	sub	r1, r1, r2
 2003ca4:	e1a0ba01 	lsl	fp, r1, #20
 2003ca8:	e1a0ba2b 	lsr	fp, fp, #20
 2003cac:	e1a0100b 	mov	r1, fp
 2003cb0:	e1a00005 	mov	r0, r5
 2003cb4:	e58d3004 	str	r3, [sp, #4]
 2003cb8:	e58d2000 	str	r2, [sp]
 2003cbc:	eb003d60 	bl	2013244 <_sbrk_r>
 2003cc0:	e3700001 	cmn	r0, #1
 2003cc4:	e89d000c 	ldm	sp, {r2, r3}
 2003cc8:	0a0000f7 	beq	20040ac <_malloc_r+0x734>
 2003ccc:	e0400009 	sub	r0, r0, r9
 2003cd0:	e080200b 	add	r2, r0, fp
 2003cd4:	e59a3000 	ldr	r3, [sl]
 2003cd8:	e3822001 	orr	r2, r2, #1
 2003cdc:	e08b1003 	add	r1, fp, r3
 2003ce0:	e1540007 	cmp	r4, r7
 2003ce4:	e5879008 	str	r9, [r7, #8]
 2003ce8:	e58a1000 	str	r1, [sl]
 2003cec:	e5892004 	str	r2, [r9, #4]
 2003cf0:	0a000010 	beq	2003d38 <_malloc_r+0x3c0>
 2003cf4:	e358000f 	cmp	r8, #15
 2003cf8:	93a03001 	movls	r3, #1
 2003cfc:	95893004 	strls	r3, [r9, #4]
 2003d00:	9a00008f 	bls	2003f44 <_malloc_r+0x5cc>
 2003d04:	e3a00005 	mov	r0, #5
 2003d08:	e5942004 	ldr	r2, [r4, #4]
 2003d0c:	e248300c 	sub	r3, r8, #12
 2003d10:	e3c33007 	bic	r3, r3, #7
 2003d14:	e2022001 	and	r2, r2, #1
 2003d18:	e1822003 	orr	r2, r2, r3
 2003d1c:	e353000f 	cmp	r3, #15
 2003d20:	e0843003 	add	r3, r4, r3
 2003d24:	e5842004 	str	r2, [r4, #4]
 2003d28:	e5830004 	str	r0, [r3, #4]
 2003d2c:	e5830008 	str	r0, [r3, #8]
 2003d30:	8a0000e2 	bhi	20040c0 <_malloc_r+0x748>
 2003d34:	e5992004 	ldr	r2, [r9, #4]
 2003d38:	e59f33f4 	ldr	r3, [pc, #1012]	@ 2004134 <_malloc_r+0x7bc>
 2003d3c:	e5930000 	ldr	r0, [r3]
 2003d40:	e1500001 	cmp	r0, r1
 2003d44:	35831000 	strcc	r1, [r3]
 2003d48:	e59f33e8 	ldr	r3, [pc, #1000]	@ 2004138 <_malloc_r+0x7c0>
 2003d4c:	e5930000 	ldr	r0, [r3]
 2003d50:	e1500001 	cmp	r0, r1
 2003d54:	e1a04009 	mov	r4, r9
 2003d58:	35831000 	strcc	r1, [r3]
 2003d5c:	ea00006f 	b	2003f20 <_malloc_r+0x5a8>
 2003d60:	e0842006 	add	r2, r4, r6
 2003d64:	e3833001 	orr	r3, r3, #1
 2003d68:	e3866001 	orr	r6, r6, #1
 2003d6c:	e5846004 	str	r6, [r4, #4]
 2003d70:	e1a00005 	mov	r0, r5
 2003d74:	e5872008 	str	r2, [r7, #8]
 2003d78:	e2844008 	add	r4, r4, #8
 2003d7c:	e5823004 	str	r3, [r2, #4]
 2003d80:	eb000477 	bl	2004f64 <__malloc_unlock>
 2003d84:	e1a00004 	mov	r0, r4
 2003d88:	e28dd00c 	add	sp, sp, #12
 2003d8c:	e8bd4ff0 	pop	{r4, r5, r6, r7, r8, r9, sl, fp, lr}
 2003d90:	e12fff1e 	bx	lr
 2003d94:	e593400c 	ldr	r4, [r3, #12]
 2003d98:	e1530004 	cmp	r3, r4
 2003d9c:	02800002 	addeq	r0, r0, #2
 2003da0:	0affff3b 	beq	2003a94 <_malloc_r+0x11c>
 2003da4:	eaffff05 	b	20039c0 <_malloc_r+0x48>
 2003da8:	e3510c0a 	cmp	r1, #2560	@ 0xa00
 2003dac:	e1a034a1 	lsr	r3, r1, #9
 2003db0:	3a000051 	bcc	2003efc <_malloc_r+0x584>
 2003db4:	e3530014 	cmp	r3, #20
 2003db8:	8a000090 	bhi	2004000 <_malloc_r+0x688>
 2003dbc:	e283205c 	add	r2, r3, #92	@ 0x5c
 2003dc0:	e1a02182 	lsl	r2, r2, #3
 2003dc4:	e283305b 	add	r3, r3, #91	@ 0x5b
 2003dc8:	e797c002 	ldr	ip, [r7, r2]
 2003dcc:	e0872002 	add	r2, r7, r2
 2003dd0:	e2422008 	sub	r2, r2, #8
 2003dd4:	e152000c 	cmp	r2, ip
 2003dd8:	1a000003 	bne	2003dec <_malloc_r+0x474>
 2003ddc:	ea000074 	b	2003fb4 <_malloc_r+0x63c>
 2003de0:	e59cc008 	ldr	ip, [ip, #8]
 2003de4:	e152000c 	cmp	r2, ip
 2003de8:	0a000003 	beq	2003dfc <_malloc_r+0x484>
 2003dec:	e59c3004 	ldr	r3, [ip, #4]
 2003df0:	e3c33003 	bic	r3, r3, #3
 2003df4:	e1530001 	cmp	r3, r1
 2003df8:	8afffff8 	bhi	2003de0 <_malloc_r+0x468>
 2003dfc:	e59c200c 	ldr	r2, [ip, #12]
 2003e00:	e584200c 	str	r2, [r4, #12]
 2003e04:	e584c008 	str	ip, [r4, #8]
 2003e08:	e5824008 	str	r4, [r2, #8]
 2003e0c:	e58c400c 	str	r4, [ip, #12]
 2003e10:	eaffff3d 	b	2003b0c <_malloc_r+0x194>
 2003e14:	e3530014 	cmp	r3, #20
 2003e18:	9a00004c 	bls	2003f50 <_malloc_r+0x5d8>
 2003e1c:	e3530054 	cmp	r3, #84	@ 0x54
 2003e20:	8a00007d 	bhi	200401c <_malloc_r+0x6a4>
 2003e24:	e1a03626 	lsr	r3, r6, #12
 2003e28:	e283006f 	add	r0, r3, #111	@ 0x6f
 2003e2c:	e283c06e 	add	ip, r3, #110	@ 0x6e
 2003e30:	e1a01180 	lsl	r1, r0, #3
 2003e34:	eaffff03 	b	2003a48 <_malloc_r+0xd0>
 2003e38:	e594e008 	ldr	lr, [r4, #8]
 2003e3c:	e084c006 	add	ip, r4, r6
 2003e40:	e3866001 	orr	r6, r6, #1
 2003e44:	e5846004 	str	r6, [r4, #4]
 2003e48:	e58e300c 	str	r3, [lr, #12]
 2003e4c:	e583e008 	str	lr, [r3, #8]
 2003e50:	e3813001 	orr	r3, r1, #1
 2003e54:	e587c010 	str	ip, [r7, #16]
 2003e58:	e587c014 	str	ip, [r7, #20]
 2003e5c:	e1a00005 	mov	r0, r5
 2003e60:	e58c800c 	str	r8, [ip, #12]
 2003e64:	e58c8008 	str	r8, [ip, #8]
 2003e68:	e58c3004 	str	r3, [ip, #4]
 2003e6c:	e7841002 	str	r1, [r4, r2]
 2003e70:	eb00043b 	bl	2004f64 <__malloc_unlock>
 2003e74:	e2844008 	add	r4, r4, #8
 2003e78:	eaffff4b 	b	2003bac <_malloc_r+0x234>
 2003e7c:	e0842002 	add	r2, r4, r2
 2003e80:	e5921004 	ldr	r1, [r2, #4]
 2003e84:	e3811001 	orr	r1, r1, #1
 2003e88:	e5821004 	str	r1, [r2, #4]
 2003e8c:	e5b42008 	ldr	r2, [r4, #8]!
 2003e90:	e1a00005 	mov	r0, r5
 2003e94:	e582300c 	str	r3, [r2, #12]
 2003e98:	e5832008 	str	r2, [r3, #8]
 2003e9c:	eb000430 	bl	2004f64 <__malloc_unlock>
 2003ea0:	eaffff41 	b	2003bac <_malloc_r+0x234>
 2003ea4:	e0841001 	add	r1, r4, r1
 2003ea8:	e5913004 	ldr	r3, [r1, #4]
 2003eac:	e3833001 	orr	r3, r3, #1
 2003eb0:	e1a00005 	mov	r0, r5
 2003eb4:	e5813004 	str	r3, [r1, #4]
 2003eb8:	eb000429 	bl	2004f64 <__malloc_unlock>
 2003ebc:	e2844008 	add	r4, r4, #8
 2003ec0:	eaffff39 	b	2003bac <_malloc_r+0x234>
 2003ec4:	e0842006 	add	r2, r4, r6
 2003ec8:	e383c001 	orr	ip, r3, #1
 2003ecc:	e3866001 	orr	r6, r6, #1
 2003ed0:	e5846004 	str	r6, [r4, #4]
 2003ed4:	e1a00005 	mov	r0, r5
 2003ed8:	e5872010 	str	r2, [r7, #16]
 2003edc:	e5872014 	str	r2, [r7, #20]
 2003ee0:	e582800c 	str	r8, [r2, #12]
 2003ee4:	e5828008 	str	r8, [r2, #8]
 2003ee8:	e582c004 	str	ip, [r2, #4]
 2003eec:	e7843001 	str	r3, [r4, r1]
 2003ef0:	eb00041b 	bl	2004f64 <__malloc_unlock>
 2003ef4:	e2844008 	add	r4, r4, #8
 2003ef8:	eaffff2b 	b	2003bac <_malloc_r+0x234>
 2003efc:	e1a03321 	lsr	r3, r1, #6
 2003f00:	e2832039 	add	r2, r3, #57	@ 0x39
 2003f04:	e1a02182 	lsl	r2, r2, #3
 2003f08:	e2833038 	add	r3, r3, #56	@ 0x38
 2003f0c:	eaffffad 	b	2003dc8 <_malloc_r+0x450>
 2003f10:	e1540007 	cmp	r4, r7
 2003f14:	0a000047 	beq	2004038 <_malloc_r+0x6c0>
 2003f18:	e5974008 	ldr	r4, [r7, #8]
 2003f1c:	e5942004 	ldr	r2, [r4, #4]
 2003f20:	e3c22003 	bic	r2, r2, #3
 2003f24:	e0423006 	sub	r3, r2, r6
 2003f28:	e353000f 	cmp	r3, #15
 2003f2c:	c3a01000 	movgt	r1, #0
 2003f30:	d3a01001 	movle	r1, #1
 2003f34:	e1520006 	cmp	r2, r6
 2003f38:	33811001 	orrcc	r1, r1, #1
 2003f3c:	e3510000 	cmp	r1, #0
 2003f40:	0affff86 	beq	2003d60 <_malloc_r+0x3e8>
 2003f44:	e1a00005 	mov	r0, r5
 2003f48:	eb000405 	bl	2004f64 <__malloc_unlock>
 2003f4c:	eaffff15 	b	2003ba8 <_malloc_r+0x230>
 2003f50:	e283005c 	add	r0, r3, #92	@ 0x5c
 2003f54:	e283c05b 	add	ip, r3, #91	@ 0x5b
 2003f58:	e1a01180 	lsl	r1, r0, #3
 2003f5c:	eafffeb9 	b	2003a48 <_malloc_r+0xd0>
 2003f60:	e41a3008 	ldr	r3, [sl], #-8
 2003f64:	e153000a 	cmp	r3, sl
 2003f68:	e2400001 	sub	r0, r0, #1
 2003f6c:	1a000066 	bne	200410c <_malloc_r+0x794>
 2003f70:	e3100003 	tst	r0, #3
 2003f74:	1afffff9 	bne	2003f60 <_malloc_r+0x5e8>
 2003f78:	e5973004 	ldr	r3, [r7, #4]
 2003f7c:	e1c3300c 	bic	r3, r3, ip
 2003f80:	e5873004 	str	r3, [r7, #4]
 2003f84:	e1a0c08c 	lsl	ip, ip, #1
 2003f88:	e24c2001 	sub	r2, ip, #1
 2003f8c:	e1520003 	cmp	r2, r3
 2003f90:	2affff0d 	bcs	2003bcc <_malloc_r+0x254>
 2003f94:	e11c0003 	tst	ip, r3
 2003f98:	1a000003 	bne	2003fac <_malloc_r+0x634>
 2003f9c:	e1a0c08c 	lsl	ip, ip, #1
 2003fa0:	e11c0003 	tst	ip, r3
 2003fa4:	e2899004 	add	r9, r9, #4
 2003fa8:	0afffffb 	beq	2003f9c <_malloc_r+0x624>
 2003fac:	e1a00009 	mov	r0, r9
 2003fb0:	eafffee5 	b	2003b4c <_malloc_r+0x1d4>
 2003fb4:	e3a01001 	mov	r1, #1
 2003fb8:	e1a03143 	asr	r3, r3, #2
 2003fbc:	e18ee311 	orr	lr, lr, r1, lsl r3
 2003fc0:	e587e004 	str	lr, [r7, #4]
 2003fc4:	eaffff8d 	b	2003e00 <_malloc_r+0x488>
 2003fc8:	e0891002 	add	r1, r9, r2
 2003fcc:	e2611000 	rsb	r1, r1, #0
 2003fd0:	e1a0ba01 	lsl	fp, r1, #20
 2003fd4:	e1a0ba2b 	lsr	fp, fp, #20
 2003fd8:	e1a0100b 	mov	r1, fp
 2003fdc:	e1a00005 	mov	r0, r5
 2003fe0:	e58d3004 	str	r3, [sp, #4]
 2003fe4:	e58d2000 	str	r2, [sp]
 2003fe8:	eb003c95 	bl	2013244 <_sbrk_r>
 2003fec:	e89d000c 	ldm	sp, {r2, r3}
 2003ff0:	e3700001 	cmn	r0, #1
 2003ff4:	01a0b003 	moveq	fp, r3
 2003ff8:	1affff33 	bne	2003ccc <_malloc_r+0x354>
 2003ffc:	eaffff34 	b	2003cd4 <_malloc_r+0x35c>
 2004000:	e3530054 	cmp	r3, #84	@ 0x54
 2004004:	8a000019 	bhi	2004070 <_malloc_r+0x6f8>
 2004008:	e1a03621 	lsr	r3, r1, #12
 200400c:	e283206f 	add	r2, r3, #111	@ 0x6f
 2004010:	e1a02182 	lsl	r2, r2, #3
 2004014:	e283306e 	add	r3, r3, #110	@ 0x6e
 2004018:	eaffff6a 	b	2003dc8 <_malloc_r+0x450>
 200401c:	e3530f55 	cmp	r3, #340	@ 0x154
 2004020:	8a000019 	bhi	200408c <_malloc_r+0x714>
 2004024:	e1a037a6 	lsr	r3, r6, #15
 2004028:	e2830078 	add	r0, r3, #120	@ 0x78
 200402c:	e283c077 	add	ip, r3, #119	@ 0x77
 2004030:	e1a01180 	lsl	r1, r0, #3
 2004034:	eafffe83 	b	2003a48 <_malloc_r+0xd0>
 2004038:	e59fa0f0 	ldr	sl, [pc, #240]	@ 2004130 <_malloc_r+0x7b8>
 200403c:	e59a0000 	ldr	r0, [sl]
 2004040:	e0820000 	add	r0, r2, r0
 2004044:	e58a0000 	str	r0, [sl]
 2004048:	eaffff07 	b	2003c6c <_malloc_r+0x2f4>
 200404c:	e1a0ca09 	lsl	ip, r9, #20
 2004050:	e1a0ca2c 	lsr	ip, ip, #20
 2004054:	e35c0000 	cmp	ip, #0
 2004058:	1affff03 	bne	2003c6c <_malloc_r+0x2f4>
 200405c:	e5979008 	ldr	r9, [r7, #8]
 2004060:	e0882002 	add	r2, r8, r2
 2004064:	e3822001 	orr	r2, r2, #1
 2004068:	e5892004 	str	r2, [r9, #4]
 200406c:	eaffff31 	b	2003d38 <_malloc_r+0x3c0>
 2004070:	e3530f55 	cmp	r3, #340	@ 0x154
 2004074:	8a000017 	bhi	20040d8 <_malloc_r+0x760>
 2004078:	e1a037a1 	lsr	r3, r1, #15
 200407c:	e2832078 	add	r2, r3, #120	@ 0x78
 2004080:	e1a02182 	lsl	r2, r2, #3
 2004084:	e2833077 	add	r3, r3, #119	@ 0x77
 2004088:	eaffff4e 	b	2003dc8 <_malloc_r+0x450>
 200408c:	e59f20a8 	ldr	r2, [pc, #168]	@ 200413c <_malloc_r+0x7c4>
 2004090:	e1530002 	cmp	r3, r2
 2004094:	8a000018 	bhi	20040fc <_malloc_r+0x784>
 2004098:	e1a03926 	lsr	r3, r6, #18
 200409c:	e283007d 	add	r0, r3, #125	@ 0x7d
 20040a0:	e283c07c 	add	ip, r3, #124	@ 0x7c
 20040a4:	e1a01180 	lsl	r1, r0, #3
 20040a8:	eafffe66 	b	2003a48 <_malloc_r+0xd0>
 20040ac:	e2433008 	sub	r3, r3, #8
 20040b0:	e0822003 	add	r2, r2, r3
 20040b4:	e3a0b000 	mov	fp, #0
 20040b8:	e0422009 	sub	r2, r2, r9
 20040bc:	eaffff04 	b	2003cd4 <_malloc_r+0x35c>
 20040c0:	e2841008 	add	r1, r4, #8
 20040c4:	e1a00005 	mov	r0, r5
 20040c8:	eb00005c 	bl	2004240 <_free_r>
 20040cc:	e5979008 	ldr	r9, [r7, #8]
 20040d0:	e59a1000 	ldr	r1, [sl]
 20040d4:	eaffff16 	b	2003d34 <_malloc_r+0x3bc>
 20040d8:	e59f205c 	ldr	r2, [pc, #92]	@ 200413c <_malloc_r+0x7c4>
 20040dc:	e1530002 	cmp	r3, r2
 20040e0:	91a03921 	lsrls	r3, r1, #18
 20040e4:	9283207d 	addls	r2, r3, #125	@ 0x7d
 20040e8:	83a02ffe 	movhi	r2, #1016	@ 0x3f8
 20040ec:	83a0307e 	movhi	r3, #126	@ 0x7e
 20040f0:	9283307c 	addls	r3, r3, #124	@ 0x7c
 20040f4:	91a02182 	lslls	r2, r2, #3
 20040f8:	eaffff32 	b	2003dc8 <_malloc_r+0x450>
 20040fc:	e3a01ffe 	mov	r1, #1016	@ 0x3f8
 2004100:	e3a0007f 	mov	r0, #127	@ 0x7f
 2004104:	e3a0c07e 	mov	ip, #126	@ 0x7e
 2004108:	eafffe4e 	b	2003a48 <_malloc_r+0xd0>
 200410c:	e5973004 	ldr	r3, [r7, #4]
 2004110:	eaffff9b 	b	2003f84 <_malloc_r+0x60c>
 2004114:	e1a001a6 	lsr	r0, r6, #3
 2004118:	e2863008 	add	r3, r6, #8
 200411c:	eafffe21 	b	20039a8 <_malloc_r+0x30>
 2004120:	020197b0 	andeq	r9, r1, #176, 14	@ 0x2c00000
 2004124:	020197b8 	andeq	r9, r1, #184, 14	@ 0x2e00000
 2004128:	0201bb48 	andeq	fp, r1, #72, 22	@ 0x12000
 200412c:	020197a4 	andeq	r9, r1, #164, 14	@ 0x2900000
 2004130:	0201bb18 	andeq	fp, r1, #24, 22	@ 0x6000
 2004134:	0201bb44 	andeq	fp, r1, #68, 22	@ 0x11000
 2004138:	0201bb40 	andeq	fp, r1, #64, 22	@ 0x10000
 200413c:	00000554 	andeq	r0, r0, r4, asr r5

02004140 <_malloc_trim_r>:
 2004140:	e92d41f0 	push	{r4, r5, r6, r7, r8, lr}
 2004144:	e1a04001 	mov	r4, r1
 2004148:	e59f70e4 	ldr	r7, [pc, #228]	@ 2004234 <_malloc_trim_r+0xf4>
 200414c:	e1a06000 	mov	r6, r0
 2004150:	eb00037d 	bl	2004f4c <__malloc_lock>
 2004154:	e5973008 	ldr	r3, [r7, #8]
 2004158:	e5935004 	ldr	r5, [r3, #4]
 200415c:	e3c55003 	bic	r5, r5, #3
 2004160:	e2853efe 	add	r3, r5, #4064	@ 0xfe0
 2004164:	e283300f 	add	r3, r3, #15
 2004168:	e0431004 	sub	r1, r3, r4
 200416c:	e3c11eff 	bic	r1, r1, #4080	@ 0xff0
 2004170:	e3c1100f 	bic	r1, r1, #15
 2004174:	e2414a01 	sub	r4, r1, #4096	@ 0x1000
 2004178:	e3540a01 	cmp	r4, #4096	@ 0x1000
 200417c:	ba000006 	blt	200419c <_malloc_trim_r+0x5c>
 2004180:	e3a01000 	mov	r1, #0
 2004184:	e1a00006 	mov	r0, r6
 2004188:	eb003c2d 	bl	2013244 <_sbrk_r>
 200418c:	e5973008 	ldr	r3, [r7, #8]
 2004190:	e0833005 	add	r3, r3, r5
 2004194:	e1500003 	cmp	r0, r3
 2004198:	0a000004 	beq	20041b0 <_malloc_trim_r+0x70>
 200419c:	e1a00006 	mov	r0, r6
 20041a0:	eb00036f 	bl	2004f64 <__malloc_unlock>
 20041a4:	e3a00000 	mov	r0, #0
 20041a8:	e8bd41f0 	pop	{r4, r5, r6, r7, r8, lr}
 20041ac:	e12fff1e 	bx	lr
 20041b0:	e1a00006 	mov	r0, r6
 20041b4:	e2641000 	rsb	r1, r4, #0
 20041b8:	eb003c21 	bl	2013244 <_sbrk_r>
 20041bc:	e3700001 	cmn	r0, #1
 20041c0:	0a00000c 	beq	20041f8 <_malloc_trim_r+0xb8>
 20041c4:	e5973008 	ldr	r3, [r7, #8]
 20041c8:	e59f2068 	ldr	r2, [pc, #104]	@ 2004238 <_malloc_trim_r+0xf8>
 20041cc:	e0455004 	sub	r5, r5, r4
 20041d0:	e3855001 	orr	r5, r5, #1
 20041d4:	e5835004 	str	r5, [r3, #4]
 20041d8:	e5923000 	ldr	r3, [r2]
 20041dc:	e1a00006 	mov	r0, r6
 20041e0:	e0433004 	sub	r3, r3, r4
 20041e4:	e5823000 	str	r3, [r2]
 20041e8:	eb00035d 	bl	2004f64 <__malloc_unlock>
 20041ec:	e3a00001 	mov	r0, #1
 20041f0:	e8bd41f0 	pop	{r4, r5, r6, r7, r8, lr}
 20041f4:	e12fff1e 	bx	lr
 20041f8:	e3a01000 	mov	r1, #0
 20041fc:	e1a00006 	mov	r0, r6
 2004200:	eb003c0f 	bl	2013244 <_sbrk_r>
 2004204:	e5972008 	ldr	r2, [r7, #8]
 2004208:	e0403002 	sub	r3, r0, r2
 200420c:	e353000f 	cmp	r3, #15
 2004210:	daffffe1 	ble	200419c <_malloc_trim_r+0x5c>
 2004214:	e3833001 	orr	r3, r3, #1
 2004218:	e5823004 	str	r3, [r2, #4]
 200421c:	e59f3018 	ldr	r3, [pc, #24]	@ 200423c <_malloc_trim_r+0xfc>
 2004220:	e5933000 	ldr	r3, [r3]
 2004224:	e59f100c 	ldr	r1, [pc, #12]	@ 2004238 <_malloc_trim_r+0xf8>
 2004228:	e0400003 	sub	r0, r0, r3
 200422c:	e5810000 	str	r0, [r1]
 2004230:	eaffffd9 	b	200419c <_malloc_trim_r+0x5c>
 2004234:	020197b0 	andeq	r9, r1, #176, 14	@ 0x2c00000
 2004238:	0201bb18 	andeq	fp, r1, #24, 22	@ 0x6000
 200423c:	020197a4 	andeq	r9, r1, #164, 14	@ 0x2900000

02004240 <_free_r>:
 2004240:	e92d4070 	push	{r4, r5, r6, lr}
 2004244:	e2514000 	subs	r4, r1, #0
 2004248:	0a000033 	beq	200431c <_free_r+0xdc>
 200424c:	e1a05000 	mov	r5, r0
 2004250:	eb00033d 	bl	2004f4c <__malloc_lock>
 2004254:	e5140004 	ldr	r0, [r4, #-4]
 2004258:	e59f22b8 	ldr	r2, [pc, #696]	@ 2004518 <_free_r+0x2d8>
 200425c:	e244c008 	sub	ip, r4, #8
 2004260:	e5923008 	ldr	r3, [r2, #8]
 2004264:	e3c01001 	bic	r1, r0, #1
 2004268:	e08c6001 	add	r6, ip, r1
 200426c:	e1530006 	cmp	r3, r6
 2004270:	e5963004 	ldr	r3, [r6, #4]
 2004274:	e200e001 	and	lr, r0, #1
 2004278:	e3c33003 	bic	r3, r3, #3
 200427c:	0a000060 	beq	2004404 <_free_r+0x1c4>
 2004280:	e5863004 	str	r3, [r6, #4]
 2004284:	e35e0000 	cmp	lr, #0
 2004288:	e086e003 	add	lr, r6, r3
 200428c:	e59ee004 	ldr	lr, [lr, #4]
 2004290:	e20ee001 	and	lr, lr, #1
 2004294:	1a000022 	bne	2004324 <_free_r+0xe4>
 2004298:	e5140008 	ldr	r0, [r4, #-8]
 200429c:	e04cc000 	sub	ip, ip, r0
 20042a0:	e0811000 	add	r1, r1, r0
 20042a4:	e59c0008 	ldr	r0, [ip, #8]
 20042a8:	e2824008 	add	r4, r2, #8
 20042ac:	e1500004 	cmp	r0, r4
 20042b0:	0a000048 	beq	20043d8 <_free_r+0x198>
 20042b4:	e35e0000 	cmp	lr, #0
 20042b8:	e59ce00c 	ldr	lr, [ip, #12]
 20042bc:	e580e00c 	str	lr, [r0, #12]
 20042c0:	e58e0008 	str	r0, [lr, #8]
 20042c4:	0a000064 	beq	200445c <_free_r+0x21c>
 20042c8:	e3813001 	orr	r3, r1, #1
 20042cc:	e58c3004 	str	r3, [ip, #4]
 20042d0:	e5861000 	str	r1, [r6]
 20042d4:	e3510c02 	cmp	r1, #512	@ 0x200
 20042d8:	2a000024 	bcs	2004370 <_free_r+0x130>
 20042dc:	e3a0e001 	mov	lr, #1
 20042e0:	e1a002a1 	lsr	r0, r1, #5
 20042e4:	e1a031a1 	lsr	r3, r1, #3
 20042e8:	e5921004 	ldr	r1, [r2, #4]
 20042ec:	e2833001 	add	r3, r3, #1
 20042f0:	e181101e 	orr	r1, r1, lr, lsl r0
 20042f4:	e5821004 	str	r1, [r2, #4]
 20042f8:	e7920183 	ldr	r0, [r2, r3, lsl #3]
 20042fc:	e0821183 	add	r1, r2, r3, lsl #3
 2004300:	e2411008 	sub	r1, r1, #8
 2004304:	e58c100c 	str	r1, [ip, #12]
 2004308:	e58c0008 	str	r0, [ip, #8]
 200430c:	e782c183 	str	ip, [r2, r3, lsl #3]
 2004310:	e580c00c 	str	ip, [r0, #12]
 2004314:	e1a00005 	mov	r0, r5
 2004318:	eb000311 	bl	2004f64 <__malloc_unlock>
 200431c:	e8bd4070 	pop	{r4, r5, r6, lr}
 2004320:	e12fff1e 	bx	lr
 2004324:	e35e0000 	cmp	lr, #0
 2004328:	1a00000b 	bne	200435c <_free_r+0x11c>
 200432c:	e0811003 	add	r1, r1, r3
 2004330:	e2824008 	add	r4, r2, #8
 2004334:	e5963008 	ldr	r3, [r6, #8]
 2004338:	e1530004 	cmp	r3, r4
 200433c:	e3810001 	orr	r0, r1, #1
 2004340:	0a000058 	beq	20044a8 <_free_r+0x268>
 2004344:	e596e00c 	ldr	lr, [r6, #12]
 2004348:	e583e00c 	str	lr, [r3, #12]
 200434c:	e58e3008 	str	r3, [lr, #8]
 2004350:	e58c0004 	str	r0, [ip, #4]
 2004354:	e78c1001 	str	r1, [ip, r1]
 2004358:	eaffffdd 	b	20042d4 <_free_r+0x94>
 200435c:	e3800001 	orr	r0, r0, #1
 2004360:	e3510c02 	cmp	r1, #512	@ 0x200
 2004364:	e5040004 	str	r0, [r4, #-4]
 2004368:	e78c1001 	str	r1, [ip, r1]
 200436c:	3affffda 	bcc	20042dc <_free_r+0x9c>
 2004370:	e3510c0a 	cmp	r1, #2560	@ 0xa00
 2004374:	e1a034a1 	lsr	r3, r1, #9
 2004378:	2a000039 	bcs	2004464 <_free_r+0x224>
 200437c:	e1a03321 	lsr	r3, r1, #6
 2004380:	e2830039 	add	r0, r3, #57	@ 0x39
 2004384:	e283e038 	add	lr, r3, #56	@ 0x38
 2004388:	e1a00180 	lsl	r0, r0, #3
 200438c:	e7923000 	ldr	r3, [r2, r0]
 2004390:	e0820000 	add	r0, r2, r0
 2004394:	e2400008 	sub	r0, r0, #8
 2004398:	e1500003 	cmp	r0, r3
 200439c:	1a000003 	bne	20043b0 <_free_r+0x170>
 20043a0:	ea000046 	b	20044c0 <_free_r+0x280>
 20043a4:	e5933008 	ldr	r3, [r3, #8]
 20043a8:	e1500003 	cmp	r0, r3
 20043ac:	0a000003 	beq	20043c0 <_free_r+0x180>
 20043b0:	e5932004 	ldr	r2, [r3, #4]
 20043b4:	e3c22003 	bic	r2, r2, #3
 20043b8:	e1520001 	cmp	r2, r1
 20043bc:	8afffff8 	bhi	20043a4 <_free_r+0x164>
 20043c0:	e593000c 	ldr	r0, [r3, #12]
 20043c4:	e58c000c 	str	r0, [ip, #12]
 20043c8:	e58c3008 	str	r3, [ip, #8]
 20043cc:	e580c008 	str	ip, [r0, #8]
 20043d0:	e583c00c 	str	ip, [r3, #12]
 20043d4:	eaffffce 	b	2004314 <_free_r+0xd4>
 20043d8:	e35e0000 	cmp	lr, #0
 20043dc:	1a000029 	bne	2004488 <_free_r+0x248>
 20043e0:	e0833001 	add	r3, r3, r1
 20043e4:	e2861008 	add	r1, r6, #8
 20043e8:	e8910006 	ldm	r1, {r1, r2}
 20043ec:	e581200c 	str	r2, [r1, #12]
 20043f0:	e5821008 	str	r1, [r2, #8]
 20043f4:	e3832001 	orr	r2, r3, #1
 20043f8:	e58c2004 	str	r2, [ip, #4]
 20043fc:	e78c3003 	str	r3, [ip, r3]
 2004400:	eaffffc3 	b	2004314 <_free_r+0xd4>
 2004404:	e35e0000 	cmp	lr, #0
 2004408:	e0813003 	add	r3, r1, r3
 200440c:	1a000006 	bne	200442c <_free_r+0x1ec>
 2004410:	e5141008 	ldr	r1, [r4, #-8]
 2004414:	e04cc001 	sub	ip, ip, r1
 2004418:	e28c0008 	add	r0, ip, #8
 200441c:	e0833001 	add	r3, r3, r1
 2004420:	e8900003 	ldm	r0, {r0, r1}
 2004424:	e580100c 	str	r1, [r0, #12]
 2004428:	e5810008 	str	r0, [r1, #8]
 200442c:	e3831001 	orr	r1, r3, #1
 2004430:	e58c1004 	str	r1, [ip, #4]
 2004434:	e59f10e0 	ldr	r1, [pc, #224]	@ 200451c <_free_r+0x2dc>
 2004438:	e582c008 	str	ip, [r2, #8]
 200443c:	e5912000 	ldr	r2, [r1]
 2004440:	e1520003 	cmp	r2, r3
 2004444:	8affffb2 	bhi	2004314 <_free_r+0xd4>
 2004448:	e59f30d0 	ldr	r3, [pc, #208]	@ 2004520 <_free_r+0x2e0>
 200444c:	e1a00005 	mov	r0, r5
 2004450:	e5931000 	ldr	r1, [r3]
 2004454:	ebffff39 	bl	2004140 <_malloc_trim_r>
 2004458:	eaffffad 	b	2004314 <_free_r+0xd4>
 200445c:	e0811003 	add	r1, r1, r3
 2004460:	eaffffb3 	b	2004334 <_free_r+0xf4>
 2004464:	e3530014 	cmp	r3, #20
 2004468:	9a00000a 	bls	2004498 <_free_r+0x258>
 200446c:	e3530054 	cmp	r3, #84	@ 0x54
 2004470:	8a000018 	bhi	20044d8 <_free_r+0x298>
 2004474:	e1a03621 	lsr	r3, r1, #12
 2004478:	e283006f 	add	r0, r3, #111	@ 0x6f
 200447c:	e283e06e 	add	lr, r3, #110	@ 0x6e
 2004480:	e1a00180 	lsl	r0, r0, #3
 2004484:	eaffffc0 	b	200438c <_free_r+0x14c>
 2004488:	e3813001 	orr	r3, r1, #1
 200448c:	e58c3004 	str	r3, [ip, #4]
 2004490:	e5861000 	str	r1, [r6]
 2004494:	eaffff9e 	b	2004314 <_free_r+0xd4>
 2004498:	e283005c 	add	r0, r3, #92	@ 0x5c
 200449c:	e283e05b 	add	lr, r3, #91	@ 0x5b
 20044a0:	e1a00180 	lsl	r0, r0, #3
 20044a4:	eaffffb8 	b	200438c <_free_r+0x14c>
 20044a8:	e582c014 	str	ip, [r2, #20]
 20044ac:	e582c010 	str	ip, [r2, #16]
 20044b0:	e98c0011 	stmib	ip, {r0, r4}
 20044b4:	e58c400c 	str	r4, [ip, #12]
 20044b8:	e78c1001 	str	r1, [ip, r1]
 20044bc:	eaffff94 	b	2004314 <_free_r+0xd4>
 20044c0:	e3a04001 	mov	r4, #1
 20044c4:	e5921004 	ldr	r1, [r2, #4]
 20044c8:	e1a0e14e 	asr	lr, lr, #2
 20044cc:	e1811e14 	orr	r1, r1, r4, lsl lr
 20044d0:	e5821004 	str	r1, [r2, #4]
 20044d4:	eaffffba 	b	20043c4 <_free_r+0x184>
 20044d8:	e3530f55 	cmp	r3, #340	@ 0x154
 20044dc:	8a000004 	bhi	20044f4 <_free_r+0x2b4>
 20044e0:	e1a037a1 	lsr	r3, r1, #15
 20044e4:	e2830078 	add	r0, r3, #120	@ 0x78
 20044e8:	e283e077 	add	lr, r3, #119	@ 0x77
 20044ec:	e1a00180 	lsl	r0, r0, #3
 20044f0:	eaffffa5 	b	200438c <_free_r+0x14c>
 20044f4:	e59f0028 	ldr	r0, [pc, #40]	@ 2004524 <_free_r+0x2e4>
 20044f8:	e1530000 	cmp	r3, r0
 20044fc:	91a03921 	lsrls	r3, r1, #18
 2004500:	9283007d 	addls	r0, r3, #125	@ 0x7d
 2004504:	83a00ffe 	movhi	r0, #1016	@ 0x3f8
 2004508:	83a0e07e 	movhi	lr, #126	@ 0x7e
 200450c:	9283e07c 	addls	lr, r3, #124	@ 0x7c
 2004510:	91a00180 	lslls	r0, r0, #3
 2004514:	eaffff9c 	b	200438c <_free_r+0x14c>
 2004518:	020197b0 	andeq	r9, r1, #176, 14	@ 0x2c00000
 200451c:	020197a8 	andeq	r9, r1, #168, 14	@ 0x2a00000
 2004520:	0201bb48 	andeq	fp, r1, #72, 22	@ 0x12000
 2004524:	00000554 	andeq	r0, r0, r4, asr r5

02004528 <setvbuf>:
 2004528:	e92d43f0 	push	{r4, r5, r6, r7, r8, r9, lr}
 200452c:	e24dd00c 	sub	sp, sp, #12
 2004530:	e1a04000 	mov	r4, r0
 2004534:	e1a07001 	mov	r7, r1
 2004538:	e1a08002 	mov	r8, r2
 200453c:	e1a06003 	mov	r6, r3
 2004540:	eb003a94 	bl	2012f98 <__getreent>
 2004544:	e2505000 	subs	r5, r0, #0
 2004548:	0a000002 	beq	2004558 <setvbuf+0x30>
 200454c:	e5953034 	ldr	r3, [r5, #52]	@ 0x34
 2004550:	e3530000 	cmp	r3, #0
 2004554:	0a00008a 	beq	2004784 <setvbuf+0x25c>
 2004558:	e3580002 	cmp	r8, #2
 200455c:	0a000004 	beq	2004574 <setvbuf+0x4c>
 2004560:	e3580001 	cmp	r8, #1
 2004564:	93a03000 	movls	r3, #0
 2004568:	83a03001 	movhi	r3, #1
 200456c:	e1933fa6 	orrs	r3, r3, r6, lsr #31
 2004570:	1a000085 	bne	200478c <setvbuf+0x264>
 2004574:	e5943070 	ldr	r3, [r4, #112]	@ 0x70
 2004578:	e3130001 	tst	r3, #1
 200457c:	0a00003e 	beq	200467c <setvbuf+0x154>
 2004580:	e1a01004 	mov	r1, r4
 2004584:	e1a00005 	mov	r0, r5
 2004588:	eb000330 	bl	2005250 <_fflush_r>
 200458c:	e5941030 	ldr	r1, [r4, #48]	@ 0x30
 2004590:	e3510000 	cmp	r1, #0
 2004594:	0a000005 	beq	20045b0 <setvbuf+0x88>
 2004598:	e2843040 	add	r3, r4, #64	@ 0x40
 200459c:	e1510003 	cmp	r1, r3
 20045a0:	11a00005 	movne	r0, r5
 20045a4:	1bffff25 	blne	2004240 <_free_r>
 20045a8:	e3a03000 	mov	r3, #0
 20045ac:	e5843030 	str	r3, [r4, #48]	@ 0x30
 20045b0:	e3a02000 	mov	r2, #0
 20045b4:	e1d430fc 	ldrsh	r3, [r4, #12]
 20045b8:	e3130080 	tst	r3, #128	@ 0x80
 20045bc:	e5842018 	str	r2, [r4, #24]
 20045c0:	e5842004 	str	r2, [r4, #4]
 20045c4:	1a00004d 	bne	2004700 <setvbuf+0x1d8>
 20045c8:	e3c33eca 	bic	r3, r3, #3232	@ 0xca0
 20045cc:	e3c33003 	bic	r3, r3, #3
 20045d0:	e3580002 	cmp	r8, #2
 20045d4:	e1c430bc 	strh	r3, [r4, #12]
 20045d8:	0a00004d 	beq	2004714 <setvbuf+0x1ec>
 20045dc:	e28d3004 	add	r3, sp, #4
 20045e0:	e1a01004 	mov	r1, r4
 20045e4:	e1a00005 	mov	r0, r5
 20045e8:	e1a0200d 	mov	r2, sp
 20045ec:	eb002820 	bl	200e674 <__swhatbuf_r>
 20045f0:	e1d430bc 	ldrh	r3, [r4, #12]
 20045f4:	e3560000 	cmp	r6, #0
 20045f8:	e1833000 	orr	r3, r3, r0
 20045fc:	e1c430bc 	strh	r3, [r4, #12]
 2004600:	0a000023 	beq	2004694 <setvbuf+0x16c>
 2004604:	e3570000 	cmp	r7, #0
 2004608:	0a000022 	beq	2004698 <setvbuf+0x170>
 200460c:	e5953034 	ldr	r3, [r5, #52]	@ 0x34
 2004610:	e3530000 	cmp	r3, #0
 2004614:	0a000029 	beq	20046c0 <setvbuf+0x198>
 2004618:	e59d2000 	ldr	r2, [sp]
 200461c:	e1d430fc 	ldrsh	r3, [r4, #12]
 2004620:	e1520006 	cmp	r2, r6
 2004624:	13833b02 	orrne	r3, r3, #2048	@ 0x800
 2004628:	11c430bc 	strhne	r3, [r4, #12]
 200462c:	e3580001 	cmp	r8, #1
 2004630:	0a000025 	beq	20046cc <setvbuf+0x1a4>
 2004634:	e3130008 	tst	r3, #8
 2004638:	e5847000 	str	r7, [r4]
 200463c:	e5847010 	str	r7, [r4, #16]
 2004640:	e5846014 	str	r6, [r4, #20]
 2004644:	0a00002a 	beq	20046f4 <setvbuf+0x1cc>
 2004648:	e3130001 	tst	r3, #1
 200464c:	05846008 	streq	r6, [r4, #8]
 2004650:	1a000041 	bne	200475c <setvbuf+0x234>
 2004654:	e5942070 	ldr	r2, [r4, #112]	@ 0x70
 2004658:	e3120001 	tst	r2, #1
 200465c:	1a000001 	bne	2004668 <setvbuf+0x140>
 2004660:	e3130c02 	tst	r3, #512	@ 0x200
 2004664:	0a000043 	beq	2004778 <setvbuf+0x250>
 2004668:	e3a05000 	mov	r5, #0
 200466c:	e1a00005 	mov	r0, r5
 2004670:	e28dd00c 	add	sp, sp, #12
 2004674:	e8bd43f0 	pop	{r4, r5, r6, r7, r8, r9, lr}
 2004678:	e12fff1e 	bx	lr
 200467c:	e1d430bc 	ldrh	r3, [r4, #12]
 2004680:	e3130c02 	tst	r3, #512	@ 0x200
 2004684:	1affffbd 	bne	2004580 <setvbuf+0x58>
 2004688:	e284005c 	add	r0, r4, #92	@ 0x5c
 200468c:	eb003b1a 	bl	20132fc <__libc_lock_acquire_recursive>
 2004690:	eaffffba 	b	2004580 <setvbuf+0x58>
 2004694:	e59d6000 	ldr	r6, [sp]
 2004698:	e1a00006 	mov	r0, r6
 200469c:	eb00004b 	bl	20047d0 <malloc>
 20046a0:	e2507000 	subs	r7, r0, #0
 20046a4:	0a00003a 	beq	2004794 <setvbuf+0x26c>
 20046a8:	e1d430bc 	ldrh	r3, [r4, #12]
 20046ac:	e3833080 	orr	r3, r3, #128	@ 0x80
 20046b0:	e1c430bc 	strh	r3, [r4, #12]
 20046b4:	e5953034 	ldr	r3, [r5, #52]	@ 0x34
 20046b8:	e3530000 	cmp	r3, #0
 20046bc:	1affffd5 	bne	2004618 <setvbuf+0xf0>
 20046c0:	e1a00005 	mov	r0, r5
 20046c4:	eb00287f 	bl	200e8c8 <__sinit>
 20046c8:	eaffffd2 	b	2004618 <setvbuf+0xf0>
 20046cc:	e3832001 	orr	r2, r3, #1
 20046d0:	e1a02802 	lsl	r2, r2, #16
 20046d4:	e1a02842 	asr	r2, r2, #16
 20046d8:	e3130008 	tst	r3, #8
 20046dc:	01a03002 	moveq	r3, r2
 20046e0:	e1c420bc 	strh	r2, [r4, #12]
 20046e4:	e5847000 	str	r7, [r4]
 20046e8:	e5847010 	str	r7, [r4, #16]
 20046ec:	e5846014 	str	r6, [r4, #20]
 20046f0:	1a00001a 	bne	2004760 <setvbuf+0x238>
 20046f4:	e3a02000 	mov	r2, #0
 20046f8:	e5842008 	str	r2, [r4, #8]
 20046fc:	eaffffd4 	b	2004654 <setvbuf+0x12c>
 2004700:	e1a00005 	mov	r0, r5
 2004704:	e5941010 	ldr	r1, [r4, #16]
 2004708:	ebfffecc 	bl	2004240 <_free_r>
 200470c:	e1d430fc 	ldrsh	r3, [r4, #12]
 2004710:	eaffffac 	b	20045c8 <setvbuf+0xa0>
 2004714:	e3a05000 	mov	r5, #0
 2004718:	e3a00000 	mov	r0, #0
 200471c:	e3a01001 	mov	r1, #1
 2004720:	e2842043 	add	r2, r4, #67	@ 0x43
 2004724:	e5842000 	str	r2, [r4]
 2004728:	e5842010 	str	r2, [r4, #16]
 200472c:	e5942070 	ldr	r2, [r4, #112]	@ 0x70
 2004730:	e383c002 	orr	ip, r3, #2
 2004734:	e3120001 	tst	r2, #1
 2004738:	e1c4c0bc 	strh	ip, [r4, #12]
 200473c:	e5840008 	str	r0, [r4, #8]
 2004740:	e5841014 	str	r1, [r4, #20]
 2004744:	1affffc8 	bne	200466c <setvbuf+0x144>
 2004748:	e3130c02 	tst	r3, #512	@ 0x200
 200474c:	1affffc6 	bne	200466c <setvbuf+0x144>
 2004750:	e284005c 	add	r0, r4, #92	@ 0x5c
 2004754:	eb003af0 	bl	201331c <__libc_lock_release_recursive>
 2004758:	eaffffc3 	b	200466c <setvbuf+0x144>
 200475c:	e1a02003 	mov	r2, r3
 2004760:	e3a01000 	mov	r1, #0
 2004764:	e2666000 	rsb	r6, r6, #0
 2004768:	e1a03002 	mov	r3, r2
 200476c:	e5846018 	str	r6, [r4, #24]
 2004770:	e5841008 	str	r1, [r4, #8]
 2004774:	eaffffb6 	b	2004654 <setvbuf+0x12c>
 2004778:	e284005c 	add	r0, r4, #92	@ 0x5c
 200477c:	eb003ae6 	bl	201331c <__libc_lock_release_recursive>
 2004780:	eaffffb8 	b	2004668 <setvbuf+0x140>
 2004784:	eb00284f 	bl	200e8c8 <__sinit>
 2004788:	eaffff72 	b	2004558 <setvbuf+0x30>
 200478c:	e3e05000 	mvn	r5, #0
 2004790:	eaffffb5 	b	200466c <setvbuf+0x144>
 2004794:	e59d9000 	ldr	r9, [sp]
 2004798:	e1590006 	cmp	r9, r6
 200479c:	0a000004 	beq	20047b4 <setvbuf+0x28c>
 20047a0:	e1a00009 	mov	r0, r9
 20047a4:	eb000009 	bl	20047d0 <malloc>
 20047a8:	e2507000 	subs	r7, r0, #0
 20047ac:	11a06009 	movne	r6, r9
 20047b0:	1affffbc 	bne	20046a8 <setvbuf+0x180>
 20047b4:	e3e05000 	mvn	r5, #0
 20047b8:	e1d430fc 	ldrsh	r3, [r4, #12]
 20047bc:	eaffffd5 	b	2004718 <setvbuf+0x1f0>

020047c0 <__errno>:
 20047c0:	e92d4010 	push	{r4, lr}
 20047c4:	eb0039f3 	bl	2012f98 <__getreent>
 20047c8:	e8bd4010 	pop	{r4, lr}
 20047cc:	e12fff1e 	bx	lr

020047d0 <malloc>:
 20047d0:	e350001f 	cmp	r0, #31
 20047d4:	e92d4010 	push	{r4, lr}
 20047d8:	e1a04000 	mov	r4, r0
 20047dc:	9a000005 	bls	20047f8 <malloc+0x28>
 20047e0:	eb0039ec 	bl	2012f98 <__getreent>
 20047e4:	e1a02004 	mov	r2, r4
 20047e8:	e3a01020 	mov	r1, #32
 20047ec:	eb000d80 	bl	2007df4 <_memalign_r>
 20047f0:	e8bd4010 	pop	{r4, lr}
 20047f4:	e12fff1e 	bx	lr
 20047f8:	eb0039e6 	bl	2012f98 <__getreent>
 20047fc:	e1a01004 	mov	r1, r4
 2004800:	ebfffc5c 	bl	2003978 <_malloc_r>
 2004804:	e8bd4010 	pop	{r4, lr}
 2004808:	e12fff1e 	bx	lr

0200480c <free>:
 200480c:	e92d4010 	push	{r4, lr}
 2004810:	e1a04000 	mov	r4, r0
 2004814:	eb0039df 	bl	2012f98 <__getreent>
 2004818:	e1a01004 	mov	r1, r4
 200481c:	ebfffe87 	bl	2004240 <_free_r>
 2004820:	e8bd4010 	pop	{r4, lr}
 2004824:	e12fff1e 	bx	lr

02004828 <memcpy>:
 2004828:	e352000f 	cmp	r2, #15
 200482c:	9a00000f 	bls	2004870 <memcpy+0x48>
 2004830:	e1803001 	orr	r3, r0, r1
 2004834:	e3130003 	tst	r3, #3
 2004838:	e92d40f0 	push	{r4, r5, r6, r7, lr}
 200483c:	11a03000 	movne	r3, r0
 2004840:	e1a05001 	mov	r5, r1
 2004844:	12422001 	subne	r2, r2, #1
 2004848:	0a000013 	beq	200489c <memcpy+0x74>
 200484c:	e2822001 	add	r2, r2, #1
 2004850:	e2433001 	sub	r3, r3, #1
 2004854:	e0812002 	add	r2, r1, r2
 2004858:	e4d1c001 	ldrb	ip, [r1], #1
 200485c:	e1510002 	cmp	r1, r2
 2004860:	e5e3c001 	strb	ip, [r3, #1]!
 2004864:	1afffffb 	bne	2004858 <memcpy+0x30>
 2004868:	e8bd40f0 	pop	{r4, r5, r6, r7, lr}
 200486c:	e12fff1e 	bx	lr
 2004870:	e3520000 	cmp	r2, #0
 2004874:	e2422001 	sub	r2, r2, #1
 2004878:	012fff1e 	bxeq	lr
 200487c:	e2822001 	add	r2, r2, #1
 2004880:	e2403001 	sub	r3, r0, #1
 2004884:	e0812002 	add	r2, r1, r2
 2004888:	e4d1c001 	ldrb	ip, [r1], #1
 200488c:	e1510002 	cmp	r1, r2
 2004890:	e5e3c001 	strb	ip, [r3, #1]!
 2004894:	1afffffb 	bne	2004888 <memcpy+0x60>
 2004898:	e12fff1e 	bx	lr
 200489c:	e1a03000 	mov	r3, r0
 20048a0:	e2426010 	sub	r6, r2, #16
 20048a4:	e3c6400f 	bic	r4, r6, #15
 20048a8:	e2844010 	add	r4, r4, #16
 20048ac:	e281c010 	add	ip, r1, #16
 20048b0:	e0804004 	add	r4, r0, r4
 20048b4:	e51c7010 	ldr	r7, [ip, #-16]
 20048b8:	e51ce008 	ldr	lr, [ip, #-8]
 20048bc:	e4837010 	str	r7, [r3], #16
 20048c0:	e28cc010 	add	ip, ip, #16
 20048c4:	e51c701c 	ldr	r7, [ip, #-28]	@ 0xffffffe4
 20048c8:	e503e008 	str	lr, [r3, #-8]
 20048cc:	e51ce014 	ldr	lr, [ip, #-20]	@ 0xffffffec
 20048d0:	e1530004 	cmp	r3, r4
 20048d4:	e503700c 	str	r7, [r3, #-12]
 20048d8:	e503e004 	str	lr, [r3, #-4]
 20048dc:	1afffff4 	bne	20048b4 <memcpy+0x8c>
 20048e0:	e3c6300f 	bic	r3, r6, #15
 20048e4:	e081c003 	add	ip, r1, r3
 20048e8:	e312000c 	tst	r2, #12
 20048ec:	e0803003 	add	r3, r0, r3
 20048f0:	e28c1010 	add	r1, ip, #16
 20048f4:	e202e00f 	and	lr, r2, #15
 20048f8:	e1a04001 	mov	r4, r1
 20048fc:	01a0200e 	moveq	r2, lr
 2004900:	e2833010 	add	r3, r3, #16
 2004904:	0a00000f 	beq	2004948 <memcpy+0x120>
 2004908:	e24ee004 	sub	lr, lr, #4
 200490c:	e3cee003 	bic	lr, lr, #3
 2004910:	e08cc00e 	add	ip, ip, lr
 2004914:	e28cc014 	add	ip, ip, #20
 2004918:	e0405005 	sub	r5, r0, r5
 200491c:	e1a07001 	mov	r7, r1
 2004920:	e0816005 	add	r6, r1, r5
 2004924:	e5977000 	ldr	r7, [r7]
 2004928:	e2811004 	add	r1, r1, #4
 200492c:	e151000c 	cmp	r1, ip
 2004930:	e5867000 	str	r7, [r6]
 2004934:	1afffff8 	bne	200491c <memcpy+0xf4>
 2004938:	e28ec004 	add	ip, lr, #4
 200493c:	e08c1004 	add	r1, ip, r4
 2004940:	e08c3003 	add	r3, ip, r3
 2004944:	e2022003 	and	r2, r2, #3
 2004948:	e3520000 	cmp	r2, #0
 200494c:	e2422001 	sub	r2, r2, #1
 2004950:	1affffbd 	bne	200484c <memcpy+0x24>
 2004954:	eaffffc3 	b	2004868 <memcpy+0x40>

02004958 <printf>:
 2004958:	e92d000f 	push	{r0, r1, r2, r3}
 200495c:	e52de004 	push	{lr}		@ (str lr, [sp, #-4]!)
 2004960:	e24dd00c 	sub	sp, sp, #12
 2004964:	eb00398b 	bl	2012f98 <__getreent>
 2004968:	e28d3014 	add	r3, sp, #20
 200496c:	e59d2010 	ldr	r2, [sp, #16]
 2004970:	e5901008 	ldr	r1, [r0, #8]
 2004974:	e58d3004 	str	r3, [sp, #4]
 2004978:	eb00194a 	bl	200aea8 <_vfprintf_r>
 200497c:	e28dd00c 	add	sp, sp, #12
 2004980:	e49de004 	pop	{lr}		@ (ldr lr, [sp], #4)
 2004984:	e28dd010 	add	sp, sp, #16
 2004988:	e12fff1e 	bx	lr

0200498c <memset>:
 200498c:	e3100003 	tst	r0, #3
 2004990:	e92d4030 	push	{r4, r5, lr}
 2004994:	0a00003a 	beq	2004a84 <memset+0xf8>
 2004998:	e1a0c000 	mov	ip, r0
 200499c:	e080e002 	add	lr, r0, r2
 20049a0:	ea000004 	b	20049b8 <memset+0x2c>
 20049a4:	e1a0300c 	mov	r3, ip
 20049a8:	e4c31001 	strb	r1, [r3], #1
 20049ac:	e3130003 	tst	r3, #3
 20049b0:	0a000004 	beq	20049c8 <memset+0x3c>
 20049b4:	e1a0c003 	mov	ip, r3
 20049b8:	e15c000e 	cmp	ip, lr
 20049bc:	1afffff8 	bne	20049a4 <memset+0x18>
 20049c0:	e8bd4030 	pop	{r4, r5, lr}
 20049c4:	e12fff1e 	bx	lr
 20049c8:	e2422001 	sub	r2, r2, #1
 20049cc:	e0802002 	add	r2, r0, r2
 20049d0:	e042200c 	sub	r2, r2, ip
 20049d4:	e3520003 	cmp	r2, #3
 20049d8:	9a000020 	bls	2004a60 <memset+0xd4>
 20049dc:	e201e0ff 	and	lr, r1, #255	@ 0xff
 20049e0:	e08ee40e 	add	lr, lr, lr, lsl #8
 20049e4:	e352000f 	cmp	r2, #15
 20049e8:	e08ee80e 	add	lr, lr, lr, lsl #16
 20049ec:	9a000010 	bls	2004a34 <memset+0xa8>
 20049f0:	e2835010 	add	r5, r3, #16
 20049f4:	e1a0c005 	mov	ip, r5
 20049f8:	e2424010 	sub	r4, r2, #16
 20049fc:	e2833020 	add	r3, r3, #32
 2004a00:	e3c4400f 	bic	r4, r4, #15
 2004a04:	e0833004 	add	r3, r3, r4
 2004a08:	e50ce010 	str	lr, [ip, #-16]
 2004a0c:	e50ce00c 	str	lr, [ip, #-12]
 2004a10:	e50ce008 	str	lr, [ip, #-8]
 2004a14:	e50ce004 	str	lr, [ip, #-4]
 2004a18:	e28cc010 	add	ip, ip, #16
 2004a1c:	e15c0003 	cmp	ip, r3
 2004a20:	1afffff8 	bne	2004a08 <memset+0x7c>
 2004a24:	e312000c 	tst	r2, #12
 2004a28:	e0853004 	add	r3, r5, r4
 2004a2c:	e202200f 	and	r2, r2, #15
 2004a30:	0a00000a 	beq	2004a60 <memset+0xd4>
 2004a34:	e1a0c003 	mov	ip, r3
 2004a38:	e3c24003 	bic	r4, r2, #3
 2004a3c:	e0834004 	add	r4, r3, r4
 2004a40:	e2425004 	sub	r5, r2, #4
 2004a44:	e48ce004 	str	lr, [ip], #4
 2004a48:	e15c0004 	cmp	ip, r4
 2004a4c:	1afffffc 	bne	2004a44 <memset+0xb8>
 2004a50:	e3c5c003 	bic	ip, r5, #3
 2004a54:	e2833004 	add	r3, r3, #4
 2004a58:	e2022003 	and	r2, r2, #3
 2004a5c:	e08c3003 	add	r3, ip, r3
 2004a60:	e3520000 	cmp	r2, #0
 2004a64:	120110ff 	andne	r1, r1, #255	@ 0xff
 2004a68:	10832002 	addne	r2, r3, r2
 2004a6c:	0affffd3 	beq	20049c0 <memset+0x34>
 2004a70:	e4c31001 	strb	r1, [r3], #1
 2004a74:	e1530002 	cmp	r3, r2
 2004a78:	1afffffc 	bne	2004a70 <memset+0xe4>
 2004a7c:	e8bd4030 	pop	{r4, r5, lr}
 2004a80:	e12fff1e 	bx	lr
 2004a84:	e1a03000 	mov	r3, r0
 2004a88:	eaffffd1 	b	20049d4 <memset+0x48>

02004a8c <_realloc_r>:
 2004a8c:	e92d4ff8 	push	{r3, r4, r5, r6, r7, r8, r9, sl, fp, lr}
 2004a90:	e2514000 	subs	r4, r1, #0
 2004a94:	e1a06002 	mov	r6, r2
 2004a98:	0a00008e 	beq	2004cd8 <_realloc_r+0x24c>
 2004a9c:	e286500b 	add	r5, r6, #11
 2004aa0:	e1a08000 	mov	r8, r0
 2004aa4:	eb000128 	bl	2004f4c <__malloc_lock>
 2004aa8:	e3550016 	cmp	r5, #22
 2004aac:	93a02010 	movls	r2, #16
 2004ab0:	93a03000 	movls	r3, #0
 2004ab4:	91a05002 	movls	r5, r2
 2004ab8:	83c55007 	bichi	r5, r5, #7
 2004abc:	81a03fa5 	lsrhi	r3, r5, #31
 2004ac0:	81a02005 	movhi	r2, r5
 2004ac4:	e1550006 	cmp	r5, r6
 2004ac8:	33833001 	orrcc	r3, r3, #1
 2004acc:	e3530000 	cmp	r3, #0
 2004ad0:	13a0300c 	movne	r3, #12
 2004ad4:	e5141004 	ldr	r1, [r4, #-4]
 2004ad8:	e2449008 	sub	r9, r4, #8
 2004adc:	15883000 	strne	r3, [r8]
 2004ae0:	e3c17003 	bic	r7, r1, #3
 2004ae4:	1a000083 	bne	2004cf8 <_realloc_r+0x26c>
 2004ae8:	e1570002 	cmp	r7, r2
 2004aec:	aa000055 	bge	2004c48 <_realloc_r+0x1bc>
 2004af0:	e59f3450 	ldr	r3, [pc, #1104]	@ 2004f48 <_realloc_r+0x4bc>
 2004af4:	e593c008 	ldr	ip, [r3, #8]
 2004af8:	e0890007 	add	r0, r9, r7
 2004afc:	e15c0000 	cmp	ip, r0
 2004b00:	e590a004 	ldr	sl, [r0, #4]
 2004b04:	0a00007f 	beq	2004d08 <_realloc_r+0x27c>
 2004b08:	e3ca3001 	bic	r3, sl, #1
 2004b0c:	e0803003 	add	r3, r0, r3
 2004b10:	e5933004 	ldr	r3, [r3, #4]
 2004b14:	e3130001 	tst	r3, #1
 2004b18:	1a000067 	bne	2004cbc <_realloc_r+0x230>
 2004b1c:	e3caa003 	bic	sl, sl, #3
 2004b20:	e087300a 	add	r3, r7, sl
 2004b24:	e1530002 	cmp	r3, r2
 2004b28:	aa000041 	bge	2004c34 <_realloc_r+0x1a8>
 2004b2c:	e3110001 	tst	r1, #1
 2004b30:	1a00000a 	bne	2004b60 <_realloc_r+0xd4>
 2004b34:	e514b008 	ldr	fp, [r4, #-8]
 2004b38:	e049b00b 	sub	fp, r9, fp
 2004b3c:	e59b1004 	ldr	r1, [fp, #4]
 2004b40:	e3c11003 	bic	r1, r1, #3
 2004b44:	e08aa001 	add	sl, sl, r1
 2004b48:	e08aa007 	add	sl, sl, r7
 2004b4c:	e152000a 	cmp	r2, sl
 2004b50:	da0000de 	ble	2004ed0 <_realloc_r+0x444>
 2004b54:	e087a001 	add	sl, r7, r1
 2004b58:	e152000a 	cmp	r2, sl
 2004b5c:	da0000ae 	ble	2004e1c <_realloc_r+0x390>
 2004b60:	e1a01006 	mov	r1, r6
 2004b64:	e1a00008 	mov	r0, r8
 2004b68:	ebfffb82 	bl	2003978 <_malloc_r>
 2004b6c:	e2506000 	subs	r6, r0, #0
 2004b70:	0a00005e 	beq	2004cf0 <_realloc_r+0x264>
 2004b74:	e5143004 	ldr	r3, [r4, #-4]
 2004b78:	e3c33001 	bic	r3, r3, #1
 2004b7c:	e0893003 	add	r3, r9, r3
 2004b80:	e2462008 	sub	r2, r6, #8
 2004b84:	e1530002 	cmp	r3, r2
 2004b88:	0a00009f 	beq	2004e0c <_realloc_r+0x380>
 2004b8c:	e2472004 	sub	r2, r7, #4
 2004b90:	e3520024 	cmp	r2, #36	@ 0x24
 2004b94:	8a0000ca 	bhi	2004ec4 <_realloc_r+0x438>
 2004b98:	e3520013 	cmp	r2, #19
 2004b9c:	91a03006 	movls	r3, r6
 2004ba0:	91a02004 	movls	r2, r4
 2004ba4:	9a000014 	bls	2004bfc <_realloc_r+0x170>
 2004ba8:	e5943000 	ldr	r3, [r4]
 2004bac:	e5863000 	str	r3, [r6]
 2004bb0:	e5943004 	ldr	r3, [r4, #4]
 2004bb4:	e352001b 	cmp	r2, #27
 2004bb8:	e5863004 	str	r3, [r6, #4]
 2004bbc:	92842008 	addls	r2, r4, #8
 2004bc0:	92863008 	addls	r3, r6, #8
 2004bc4:	9a00000c 	bls	2004bfc <_realloc_r+0x170>
 2004bc8:	e5943008 	ldr	r3, [r4, #8]
 2004bcc:	e5863008 	str	r3, [r6, #8]
 2004bd0:	e594300c 	ldr	r3, [r4, #12]
 2004bd4:	e586300c 	str	r3, [r6, #12]
 2004bd8:	e3520024 	cmp	r2, #36	@ 0x24
 2004bdc:	05943010 	ldreq	r3, [r4, #16]
 2004be0:	05863010 	streq	r3, [r6, #16]
 2004be4:	05941014 	ldreq	r1, [r4, #20]
 2004be8:	05861014 	streq	r1, [r6, #20]
 2004bec:	12842010 	addne	r2, r4, #16
 2004bf0:	12863010 	addne	r3, r6, #16
 2004bf4:	02842018 	addeq	r2, r4, #24
 2004bf8:	02863018 	addeq	r3, r6, #24
 2004bfc:	e5921000 	ldr	r1, [r2]
 2004c00:	e5831000 	str	r1, [r3]
 2004c04:	e5921004 	ldr	r1, [r2, #4]
 2004c08:	e5831004 	str	r1, [r3, #4]
 2004c0c:	e5922008 	ldr	r2, [r2, #8]
 2004c10:	e5832008 	str	r2, [r3, #8]
 2004c14:	e1a01004 	mov	r1, r4
 2004c18:	e1a00008 	mov	r0, r8
 2004c1c:	ebfffd87 	bl	2004240 <_free_r>
 2004c20:	e1a00008 	mov	r0, r8
 2004c24:	eb0000ce 	bl	2004f64 <__malloc_unlock>
 2004c28:	e1a00006 	mov	r0, r6
 2004c2c:	e8bd4ff8 	pop	{r3, r4, r5, r6, r7, r8, r9, sl, fp, lr}
 2004c30:	e12fff1e 	bx	lr
 2004c34:	e2802008 	add	r2, r0, #8
 2004c38:	e1a07003 	mov	r7, r3
 2004c3c:	e892000c 	ldm	r2, {r2, r3}
 2004c40:	e582300c 	str	r3, [r2, #12]
 2004c44:	e5832008 	str	r2, [r3, #8]
 2004c48:	e5993004 	ldr	r3, [r9, #4]
 2004c4c:	e0472005 	sub	r2, r7, r5
 2004c50:	e352000f 	cmp	r2, #15
 2004c54:	e2033001 	and	r3, r3, #1
 2004c58:	e0890007 	add	r0, r9, r7
 2004c5c:	8a00000a 	bhi	2004c8c <_realloc_r+0x200>
 2004c60:	e1873003 	orr	r3, r7, r3
 2004c64:	e5893004 	str	r3, [r9, #4]
 2004c68:	e5903004 	ldr	r3, [r0, #4]
 2004c6c:	e3833001 	orr	r3, r3, #1
 2004c70:	e5803004 	str	r3, [r0, #4]
 2004c74:	e1a00008 	mov	r0, r8
 2004c78:	eb0000b9 	bl	2004f64 <__malloc_unlock>
 2004c7c:	e1a06004 	mov	r6, r4
 2004c80:	e1a00006 	mov	r0, r6
 2004c84:	e8bd4ff8 	pop	{r3, r4, r5, r6, r7, r8, r9, sl, fp, lr}
 2004c88:	e12fff1e 	bx	lr
 2004c8c:	e1853003 	orr	r3, r5, r3
 2004c90:	e0891005 	add	r1, r9, r5
 2004c94:	e3822001 	orr	r2, r2, #1
 2004c98:	e5893004 	str	r3, [r9, #4]
 2004c9c:	e5812004 	str	r2, [r1, #4]
 2004ca0:	e5903004 	ldr	r3, [r0, #4]
 2004ca4:	e3833001 	orr	r3, r3, #1
 2004ca8:	e5803004 	str	r3, [r0, #4]
 2004cac:	e2811008 	add	r1, r1, #8
 2004cb0:	e1a00008 	mov	r0, r8
 2004cb4:	ebfffd61 	bl	2004240 <_free_r>
 2004cb8:	eaffffed 	b	2004c74 <_realloc_r+0x1e8>
 2004cbc:	e3110001 	tst	r1, #1
 2004cc0:	1affffa6 	bne	2004b60 <_realloc_r+0xd4>
 2004cc4:	e514b008 	ldr	fp, [r4, #-8]
 2004cc8:	e049b00b 	sub	fp, r9, fp
 2004ccc:	e59b1004 	ldr	r1, [fp, #4]
 2004cd0:	e3c11003 	bic	r1, r1, #3
 2004cd4:	eaffff9e 	b	2004b54 <_realloc_r+0xc8>
 2004cd8:	e1a01002 	mov	r1, r2
 2004cdc:	ebfffb25 	bl	2003978 <_malloc_r>
 2004ce0:	e1a06000 	mov	r6, r0
 2004ce4:	e1a00006 	mov	r0, r6
 2004ce8:	e8bd4ff8 	pop	{r3, r4, r5, r6, r7, r8, r9, sl, fp, lr}
 2004cec:	e12fff1e 	bx	lr
 2004cf0:	e1a00008 	mov	r0, r8
 2004cf4:	eb00009a 	bl	2004f64 <__malloc_unlock>
 2004cf8:	e3a06000 	mov	r6, #0
 2004cfc:	e1a00006 	mov	r0, r6
 2004d00:	e8bd4ff8 	pop	{r3, r4, r5, r6, r7, r8, r9, sl, fp, lr}
 2004d04:	e12fff1e 	bx	lr
 2004d08:	e3caa003 	bic	sl, sl, #3
 2004d0c:	e08ac007 	add	ip, sl, r7
 2004d10:	e2850010 	add	r0, r5, #16
 2004d14:	e15c0000 	cmp	ip, r0
 2004d18:	aa000078 	bge	2004f00 <_realloc_r+0x474>
 2004d1c:	e3110001 	tst	r1, #1
 2004d20:	1affff8e 	bne	2004b60 <_realloc_r+0xd4>
 2004d24:	e514b008 	ldr	fp, [r4, #-8]
 2004d28:	e049b00b 	sub	fp, r9, fp
 2004d2c:	e59b1004 	ldr	r1, [fp, #4]
 2004d30:	e3c11003 	bic	r1, r1, #3
 2004d34:	e08aa001 	add	sl, sl, r1
 2004d38:	e08aa007 	add	sl, sl, r7
 2004d3c:	e150000a 	cmp	r0, sl
 2004d40:	caffff83 	bgt	2004b54 <_realloc_r+0xc8>
 2004d44:	e1a0600b 	mov	r6, fp
 2004d48:	e59b100c 	ldr	r1, [fp, #12]
 2004d4c:	e5b60008 	ldr	r0, [r6, #8]!
 2004d50:	e2472004 	sub	r2, r7, #4
 2004d54:	e3520024 	cmp	r2, #36	@ 0x24
 2004d58:	e580100c 	str	r1, [r0, #12]
 2004d5c:	e5810008 	str	r0, [r1, #8]
 2004d60:	8a000073 	bhi	2004f34 <_realloc_r+0x4a8>
 2004d64:	e3520013 	cmp	r2, #19
 2004d68:	91a02006 	movls	r2, r6
 2004d6c:	9a000014 	bls	2004dc4 <_realloc_r+0x338>
 2004d70:	e5941000 	ldr	r1, [r4]
 2004d74:	e58b1008 	str	r1, [fp, #8]
 2004d78:	e5941004 	ldr	r1, [r4, #4]
 2004d7c:	e352001b 	cmp	r2, #27
 2004d80:	e58b100c 	str	r1, [fp, #12]
 2004d84:	92844008 	addls	r4, r4, #8
 2004d88:	928b2010 	addls	r2, fp, #16
 2004d8c:	9a00000c 	bls	2004dc4 <_realloc_r+0x338>
 2004d90:	e3520024 	cmp	r2, #36	@ 0x24
 2004d94:	e5942008 	ldr	r2, [r4, #8]
 2004d98:	e58b2010 	str	r2, [fp, #16]
 2004d9c:	e594200c 	ldr	r2, [r4, #12]
 2004da0:	e58b2014 	str	r2, [fp, #20]
 2004da4:	05942010 	ldreq	r2, [r4, #16]
 2004da8:	058b2018 	streq	r2, [fp, #24]
 2004dac:	05941014 	ldreq	r1, [r4, #20]
 2004db0:	058b101c 	streq	r1, [fp, #28]
 2004db4:	12844010 	addne	r4, r4, #16
 2004db8:	128b2018 	addne	r2, fp, #24
 2004dbc:	028b2020 	addeq	r2, fp, #32
 2004dc0:	02844018 	addeq	r4, r4, #24
 2004dc4:	e5941000 	ldr	r1, [r4]
 2004dc8:	e5821000 	str	r1, [r2]
 2004dcc:	e5941004 	ldr	r1, [r4, #4]
 2004dd0:	e5821004 	str	r1, [r2, #4]
 2004dd4:	e5941008 	ldr	r1, [r4, #8]
 2004dd8:	e5821008 	str	r1, [r2, #8]
 2004ddc:	e04a2005 	sub	r2, sl, r5
 2004de0:	e08b1005 	add	r1, fp, r5
 2004de4:	e3822001 	orr	r2, r2, #1
 2004de8:	e5831008 	str	r1, [r3, #8]
 2004dec:	e5812004 	str	r2, [r1, #4]
 2004df0:	e59b3004 	ldr	r3, [fp, #4]
 2004df4:	e2033001 	and	r3, r3, #1
 2004df8:	e1833005 	orr	r3, r3, r5
 2004dfc:	e1a00008 	mov	r0, r8
 2004e00:	e58b3004 	str	r3, [fp, #4]
 2004e04:	eb000056 	bl	2004f64 <__malloc_unlock>
 2004e08:	eaffff9c 	b	2004c80 <_realloc_r+0x1f4>
 2004e0c:	e5163004 	ldr	r3, [r6, #-4]
 2004e10:	e3c33003 	bic	r3, r3, #3
 2004e14:	e0877003 	add	r7, r7, r3
 2004e18:	eaffff8a 	b	2004c48 <_realloc_r+0x1bc>
 2004e1c:	e1a0600b 	mov	r6, fp
 2004e20:	e2472004 	sub	r2, r7, #4
 2004e24:	e3520024 	cmp	r2, #36	@ 0x24
 2004e28:	e59b300c 	ldr	r3, [fp, #12]
 2004e2c:	e5b61008 	ldr	r1, [r6, #8]!
 2004e30:	e581300c 	str	r3, [r1, #12]
